

Microchip MPLAB XC8 Assembler V2.30 build 20200825195618 
                                                                                               Tue Jan 25 15:00:53 2022

Microchip MPLAB XC8 C Compiler v2.30 (Free license) build 20200825195618 Og1 
     1                           	processor	16F1619
     2                           	pagewidth 120
     3                           	opt	flic
     4                           	psect	stringtext1,global,class=STRCODE,delta=2,noexec
     5                           	psect	nvCOMMON,global,class=COMMON,space=1,delta=1,noexec
     6                           	psect	nvBANK0,global,class=BANK0,space=1,delta=1,noexec
     7                           	psect	cinit,global,class=CODE,merge=1,delta=2
     8                           	psect	bssCOMMON,global,class=COMMON,space=1,delta=1,noexec
     9                           	psect	cstackCOMMON,global,class=COMMON,space=1,delta=1,noexec
    10                           	psect	cstackBANK0,global,class=BANK0,space=1,delta=1,noexec
    11                           	psect	maintext,global,class=CODE,merge=1,split=1,delta=2
    12                           	psect	text1,local,class=CODE,merge=1,delta=2
    13                           	psect	text2,local,class=CODE,merge=1,delta=2
    14                           	psect	text3,local,class=CODE,merge=1,delta=2
    15                           	psect	text4,local,class=CODE,merge=1,delta=2
    16                           	psect	text5,local,class=CODE,merge=1,delta=2
    17                           	psect	text6,local,class=CODE,merge=1,delta=2
    18                           	psect	text7,local,class=CODE,merge=1,delta=2
    19                           	psect	text8,local,class=CODE,merge=1,delta=2
    20                           	psect	text9,local,class=CODE,merge=1,delta=2
    21                           	psect	text10,local,class=CODE,merge=1,delta=2
    22                           	psect	text11,local,class=CODE,merge=1,delta=2
    23                           	psect	text12,local,class=CODE,merge=1,delta=2
    24                           	psect	text13,local,class=CODE,merge=1,delta=2
    25                           	psect	text14,local,class=CODE,merge=1,delta=2
    26                           	psect	text15,local,class=CODE,merge=1,delta=2
    27                           	psect	text16,local,class=CODE,merge=1,delta=2
    28                           	psect	text17,local,class=CODE,merge=1,delta=2
    29                           	psect	text18,local,class=CODE,merge=1,delta=2
    30                           	psect	text19,local,class=CODE,merge=1,delta=2
    31                           	psect	text20,local,class=CODE,merge=1,delta=2
    32                           	psect	intentry,global,class=CODE,delta=2
    33                           	psect	text22,local,class=CODE,merge=1,delta=2
    34                           	psect	text23,local,class=CODE,merge=1,delta=2
    35                           	psect	text24,local,class=CODE,merge=1,delta=2
    36                           	psect	text25,local,class=CODE,merge=1,delta=2
    37                           	psect	text26,local,class=CODE,merge=1,delta=2
    38                           	psect	text27,local,class=CODE,merge=1,delta=2
    39                           	psect	config,global,abs,ovrld,class=CONFIG,space=4,delta=2,noexec
    40                           	dabs	1,0x7E,2
    41  0000                     
    42                           ; Version 2.20
    43                           ; Generated 12/02/2020 GMT
    44                           ; 
    45                           ; Copyright © 2020, Microchip Technology Inc. and its subsidiaries ("Microchip")
    46                           ; All rights reserved.
    47                           ; 
    48                           ; This software is developed by Microchip Technology Inc. and its subsidiaries ("Microch
      +                          ip").
    49                           ; 
    50                           ; Redistribution and use in source and binary forms, with or without modification, are
    51                           ; permitted provided that the following conditions are met:
    52                           ; 
    53                           ;     1. Redistributions of source code must retain the above copyright notice, this lis
      +                          t of
    54                           ;        conditions and the following disclaimer.
    55                           ; 
    56                           ;     2. Redistributions in binary form must reproduce the above copyright notice, this 
      +                          list
    57                           ;        of conditions and the following disclaimer in the documentation and/or other
    58                           ;        materials provided with the distribution.
    59                           ; 
    60                           ;     3. Microchip's name may not be used to endorse or promote products derived from th
      +                          is
    61                           ;        software without specific prior written permission.
    62                           ; 
    63                           ; THIS SOFTWARE IS PROVIDED BY MICROCHIP "AS IS" AND ANY EXPRESS OR IMPLIED WARRANTIES,
    64                           ; INCLUDING, BUT NOT LIMITED TO, THE IMPLIED WARRANTIES OF MERCHANTABILITY AND FITNESS F
      +                          OR
    65                           ; PURPOSE ARE DISCLAIMED.  IN NO EVENT SHALL MICROCHIP BE LIABLE FOR ANY DIRECT, INDIREC
      +                          T,
    66                           ; INCIDENTAL, SPECIAL, EXEMPLARY, OR CONSEQUENTIAL DAMAGES (INCLUDING BUT NOT LIMITED TO
    67                           ; PROCUREMENT OF SUBSTITUTE GOODS OR SERVICES; LOSS OF USE, DATA OR PROFITS; OR BUSINESS
    68                           ; INTERRUPTION) HOWSOEVER CAUSED AND ON ANY THEORY OF LIABILITY, WHETHER IN CONTRACT, ST
      +                          RICT
    69                           ; LIABILITY, OR TORT (INCLUDING NEGLIGENCE OR OTHERWISE) ARISING IN ANY WAY OUT OF THE U
      +                          SE OF
    70                           ; THIS SOFTWARE, EVEN IF ADVISED OF THE POSSIBILITY OF SUCH DAMAGE.
    71                           ; 
    72                           ; 
    73                           ; Code-generator required, PIC16F1619 Definitions
    74                           ; 
    75                           ; SFR Addresses
    76  0000                     	;# 
    77  0001                     	;# 
    78  0002                     	;# 
    79  0003                     	;# 
    80  0004                     	;# 
    81  0005                     	;# 
    82  0006                     	;# 
    83  0007                     	;# 
    84  0008                     	;# 
    85  0009                     	;# 
    86  000A                     	;# 
    87  000B                     	;# 
    88  000C                     	;# 
    89  000D                     	;# 
    90  000E                     	;# 
    91  0010                     	;# 
    92  0011                     	;# 
    93  0012                     	;# 
    94  0013                     	;# 
    95  0014                     	;# 
    96  0015                     	;# 
    97  0016                     	;# 
    98  0016                     	;# 
    99  0017                     	;# 
   100  0018                     	;# 
   101  0019                     	;# 
   102  001A                     	;# 
   103  001A                     	;# 
   104  001B                     	;# 
   105  001B                     	;# 
   106  001C                     	;# 
   107  001D                     	;# 
   108  001E                     	;# 
   109  001F                     	;# 
   110  008C                     	;# 
   111  008D                     	;# 
   112  008E                     	;# 
   113  0090                     	;# 
   114  0091                     	;# 
   115  0092                     	;# 
   116  0093                     	;# 
   117  0094                     	;# 
   118  0095                     	;# 
   119  0096                     	;# 
   120  0098                     	;# 
   121  0099                     	;# 
   122  009A                     	;# 
   123  009B                     	;# 
   124  009B                     	;# 
   125  009C                     	;# 
   126  009D                     	;# 
   127  009E                     	;# 
   128  009F                     	;# 
   129  010C                     	;# 
   130  010D                     	;# 
   131  010E                     	;# 
   132  0111                     	;# 
   133  0112                     	;# 
   134  0113                     	;# 
   135  0114                     	;# 
   136  0115                     	;# 
   137  0116                     	;# 
   138  0117                     	;# 
   139  0118                     	;# 
   140  0119                     	;# 
   141  011C                     	;# 
   142  018C                     	;# 
   143  018D                     	;# 
   144  018E                     	;# 
   145  0191                     	;# 
   146  0191                     	;# 
   147  0192                     	;# 
   148  0193                     	;# 
   149  0193                     	;# 
   150  0194                     	;# 
   151  0195                     	;# 
   152  0196                     	;# 
   153  0197                     	;# 
   154  0199                     	;# 
   155  0199                     	;# 
   156  0199                     	;# 
   157  019A                     	;# 
   158  019A                     	;# 
   159  019A                     	;# 
   160  019B                     	;# 
   161  019B                     	;# 
   162  019B                     	;# 
   163  019B                     	;# 
   164  019B                     	;# 
   165  019C                     	;# 
   166  019C                     	;# 
   167  019C                     	;# 
   168  019D                     	;# 
   169  019D                     	;# 
   170  019D                     	;# 
   171  019E                     	;# 
   172  019E                     	;# 
   173  019E                     	;# 
   174  019F                     	;# 
   175  019F                     	;# 
   176  019F                     	;# 
   177  019F                     	;# 
   178  019F                     	;# 
   179  020C                     	;# 
   180  020D                     	;# 
   181  020E                     	;# 
   182  0211                     	;# 
   183  0211                     	;# 
   184  0212                     	;# 
   185  0212                     	;# 
   186  0213                     	;# 
   187  0213                     	;# 
   188  0214                     	;# 
   189  0214                     	;# 
   190  0215                     	;# 
   191  0215                     	;# 
   192  0215                     	;# 
   193  0215                     	;# 
   194  0216                     	;# 
   195  0216                     	;# 
   196  0217                     	;# 
   197  0217                     	;# 
   198  028C                     	;# 
   199  028D                     	;# 
   200  028E                     	;# 
   201  0291                     	;# 
   202  0291                     	;# 
   203  0292                     	;# 
   204  0293                     	;# 
   205  0294                     	;# 
   206  0298                     	;# 
   207  0298                     	;# 
   208  0299                     	;# 
   209  029A                     	;# 
   210  029B                     	;# 
   211  029E                     	;# 
   212  030C                     	;# 
   213  030D                     	;# 
   214  030E                     	;# 
   215  038C                     	;# 
   216  038D                     	;# 
   217  038E                     	;# 
   218  0391                     	;# 
   219  0392                     	;# 
   220  0393                     	;# 
   221  0394                     	;# 
   222  0395                     	;# 
   223  0396                     	;# 
   224  0397                     	;# 
   225  0398                     	;# 
   226  0399                     	;# 
   227  040E                     	;# 
   228  0413                     	;# 
   229  0413                     	;# 
   230  0414                     	;# 
   231  0414                     	;# 
   232  0415                     	;# 
   233  0416                     	;# 
   234  0417                     	;# 
   235  0418                     	;# 
   236  041A                     	;# 
   237  041A                     	;# 
   238  041B                     	;# 
   239  041B                     	;# 
   240  041C                     	;# 
   241  041D                     	;# 
   242  041E                     	;# 
   243  041F                     	;# 
   244  0493                     	;# 
   245  0494                     	;# 
   246  0495                     	;# 
   247  0496                     	;# 
   248  049A                     	;# 
   249  049B                     	;# 
   250  049C                     	;# 
   251  049D                     	;# 
   252  058C                     	;# 
   253  058C                     	;# 
   254  058D                     	;# 
   255  058E                     	;# 
   256  058E                     	;# 
   257  058F                     	;# 
   258  0590                     	;# 
   259  0590                     	;# 
   260  0591                     	;# 
   261  0592                     	;# 
   262  0592                     	;# 
   263  0593                     	;# 
   264  0594                     	;# 
   265  0594                     	;# 
   266  0595                     	;# 
   267  0596                     	;# 
   268  0596                     	;# 
   269  0597                     	;# 
   270  0598                     	;# 
   271  0599                     	;# 
   272  059A                     	;# 
   273  059B                     	;# 
   274  059B                     	;# 
   275  059C                     	;# 
   276  059D                     	;# 
   277  060C                     	;# 
   278  060C                     	;# 
   279  060D                     	;# 
   280  060E                     	;# 
   281  060F                     	;# 
   282  060F                     	;# 
   283  0610                     	;# 
   284  0611                     	;# 
   285  0612                     	;# 
   286  0613                     	;# 
   287  0614                     	;# 
   288  0617                     	;# 
   289  0617                     	;# 
   290  0618                     	;# 
   291  0619                     	;# 
   292  061A                     	;# 
   293  061A                     	;# 
   294  061B                     	;# 
   295  061C                     	;# 
   296  0691                     	;# 
   297  0692                     	;# 
   298  0693                     	;# 
   299  0694                     	;# 
   300  0695                     	;# 
   301  0696                     	;# 
   302  0697                     	;# 
   303  0699                     	;# 
   304  069A                     	;# 
   305  0711                     	;# 
   306  0712                     	;# 
   307  0713                     	;# 
   308  0714                     	;# 
   309  0715                     	;# 
   310  0718                     	;# 
   311  0718                     	;# 
   312  0719                     	;# 
   313  071A                     	;# 
   314  071A                     	;# 
   315  071B                     	;# 
   316  071C                     	;# 
   317  071D                     	;# 
   318  0791                     	;# 
   319  0791                     	;# 
   320  0792                     	;# 
   321  0793                     	;# 
   322  0793                     	;# 
   323  0794                     	;# 
   324  0795                     	;# 
   325  0795                     	;# 
   326  0796                     	;# 
   327  0797                     	;# 
   328  0797                     	;# 
   329  0798                     	;# 
   330  0799                     	;# 
   331  079A                     	;# 
   332  080C                     	;# 
   333  080C                     	;# 
   334  080D                     	;# 
   335  080E                     	;# 
   336  080E                     	;# 
   337  080F                     	;# 
   338  0810                     	;# 
   339  0810                     	;# 
   340  0811                     	;# 
   341  0812                     	;# 
   342  0812                     	;# 
   343  0813                     	;# 
   344  0814                     	;# 
   345  0815                     	;# 
   346  0816                     	;# 
   347  0817                     	;# 
   348  0818                     	;# 
   349  0819                     	;# 
   350  081A                     	;# 
   351  081A                     	;# 
   352  081B                     	;# 
   353  081C                     	;# 
   354  081C                     	;# 
   355  081D                     	;# 
   356  088C                     	;# 
   357  088D                     	;# 
   358  088E                     	;# 
   359  088F                     	;# 
   360  088F                     	;# 
   361  0890                     	;# 
   362  0891                     	;# 
   363  0892                     	;# 
   364  0893                     	;# 
   365  0893                     	;# 
   366  0894                     	;# 
   367  0895                     	;# 
   368  0896                     	;# 
   369  0897                     	;# 
   370  0897                     	;# 
   371  0898                     	;# 
   372  0899                     	;# 
   373  0D8C                     	;# 
   374  0D8C                     	;# 
   375  0D8D                     	;# 
   376  0D8E                     	;# 
   377  0D8F                     	;# 
   378  0D8F                     	;# 
   379  0D90                     	;# 
   380  0D91                     	;# 
   381  0D92                     	;# 
   382  0D92                     	;# 
   383  0D93                     	;# 
   384  0D94                     	;# 
   385  0D95                     	;# 
   386  0D95                     	;# 
   387  0D96                     	;# 
   388  0D97                     	;# 
   389  0D98                     	;# 
   390  0D99                     	;# 
   391  0D9A                     	;# 
   392  0D9B                     	;# 
   393  0D9C                     	;# 
   394  0D9D                     	;# 
   395  0D9E                     	;# 
   396  0D9E                     	;# 
   397  0D9F                     	;# 
   398  0DA0                     	;# 
   399  0DA1                     	;# 
   400  0DA1                     	;# 
   401  0DA2                     	;# 
   402  0DA3                     	;# 
   403  0DA4                     	;# 
   404  0DA4                     	;# 
   405  0DA5                     	;# 
   406  0DA6                     	;# 
   407  0DA7                     	;# 
   408  0DA7                     	;# 
   409  0DA8                     	;# 
   410  0DA9                     	;# 
   411  0DAA                     	;# 
   412  0DAB                     	;# 
   413  0DAC                     	;# 
   414  0DAD                     	;# 
   415  0DAE                     	;# 
   416  0DAF                     	;# 
   417  0E0F                     	;# 
   418  0E10                     	;# 
   419  0E11                     	;# 
   420  0E12                     	;# 
   421  0E13                     	;# 
   422  0E14                     	;# 
   423  0E15                     	;# 
   424  0E16                     	;# 
   425  0E17                     	;# 
   426  0E18                     	;# 
   427  0E19                     	;# 
   428  0E1A                     	;# 
   429  0E1B                     	;# 
   430  0E1C                     	;# 
   431  0E1D                     	;# 
   432  0E1E                     	;# 
   433  0E1F                     	;# 
   434  0E20                     	;# 
   435  0E21                     	;# 
   436  0E22                     	;# 
   437  0E23                     	;# 
   438  0E24                     	;# 
   439  0E25                     	;# 
   440  0E26                     	;# 
   441  0E27                     	;# 
   442  0E28                     	;# 
   443  0E29                     	;# 
   444  0E2A                     	;# 
   445  0E2B                     	;# 
   446  0E2C                     	;# 
   447  0E2D                     	;# 
   448  0E2E                     	;# 
   449  0E90                     	;# 
   450  0E91                     	;# 
   451  0E92                     	;# 
   452  0E94                     	;# 
   453  0E95                     	;# 
   454  0E9C                     	;# 
   455  0E9D                     	;# 
   456  0E9E                     	;# 
   457  0E9F                     	;# 
   458  0EA0                     	;# 
   459  0EA1                     	;# 
   460  0EA2                     	;# 
   461  0EA3                     	;# 
   462  0EA4                     	;# 
   463  0EA5                     	;# 
   464  0EA6                     	;# 
   465  0EA7                     	;# 
   466  0F0F                     	;# 
   467  0F10                     	;# 
   468  0F11                     	;# 
   469  0F12                     	;# 
   470  0F13                     	;# 
   471  0F14                     	;# 
   472  0F15                     	;# 
   473  0F16                     	;# 
   474  0F17                     	;# 
   475  0F18                     	;# 
   476  0F19                     	;# 
   477  0F1A                     	;# 
   478  0F1B                     	;# 
   479  0F1C                     	;# 
   480  0F1D                     	;# 
   481  0F1E                     	;# 
   482  0F1F                     	;# 
   483  0F20                     	;# 
   484  0F21                     	;# 
   485  0F22                     	;# 
   486  0F23                     	;# 
   487  0F24                     	;# 
   488  0F25                     	;# 
   489  0F26                     	;# 
   490  0F27                     	;# 
   491  0F28                     	;# 
   492  0F29                     	;# 
   493  0F2A                     	;# 
   494  0F2B                     	;# 
   495  0F2C                     	;# 
   496  0F2D                     	;# 
   497  0F2E                     	;# 
   498  0F2F                     	;# 
   499  0F30                     	;# 
   500  0F31                     	;# 
   501  0F32                     	;# 
   502  0F33                     	;# 
   503  0F34                     	;# 
   504  0F35                     	;# 
   505  0F36                     	;# 
   506  0F37                     	;# 
   507  0FE4                     	;# 
   508  0FE5                     	;# 
   509  0FE6                     	;# 
   510  0FE7                     	;# 
   511  0FE8                     	;# 
   512  0FE9                     	;# 
   513  0FEA                     	;# 
   514  0FEB                     	;# 
   515  0FED                     	;# 
   516  0FEE                     	;# 
   517  0FEF                     	;# 
   518  0000                     	;# 
   519  0001                     	;# 
   520  0002                     	;# 
   521  0003                     	;# 
   522  0004                     	;# 
   523  0005                     	;# 
   524  0006                     	;# 
   525  0007                     	;# 
   526  0008                     	;# 
   527  0009                     	;# 
   528  000A                     	;# 
   529  000B                     	;# 
   530  000C                     	;# 
   531  000D                     	;# 
   532  000E                     	;# 
   533  0010                     	;# 
   534  0011                     	;# 
   535  0012                     	;# 
   536  0013                     	;# 
   537  0014                     	;# 
   538  0015                     	;# 
   539  0016                     	;# 
   540  0016                     	;# 
   541  0017                     	;# 
   542  0018                     	;# 
   543  0019                     	;# 
   544  001A                     	;# 
   545  001A                     	;# 
   546  001B                     	;# 
   547  001B                     	;# 
   548  001C                     	;# 
   549  001D                     	;# 
   550  001E                     	;# 
   551  001F                     	;# 
   552  008C                     	;# 
   553  008D                     	;# 
   554  008E                     	;# 
   555  0090                     	;# 
   556  0091                     	;# 
   557  0092                     	;# 
   558  0093                     	;# 
   559  0094                     	;# 
   560  0095                     	;# 
   561  0096                     	;# 
   562  0098                     	;# 
   563  0099                     	;# 
   564  009A                     	;# 
   565  009B                     	;# 
   566  009B                     	;# 
   567  009C                     	;# 
   568  009D                     	;# 
   569  009E                     	;# 
   570  009F                     	;# 
   571  010C                     	;# 
   572  010D                     	;# 
   573  010E                     	;# 
   574  0111                     	;# 
   575  0112                     	;# 
   576  0113                     	;# 
   577  0114                     	;# 
   578  0115                     	;# 
   579  0116                     	;# 
   580  0117                     	;# 
   581  0118                     	;# 
   582  0119                     	;# 
   583  011C                     	;# 
   584  018C                     	;# 
   585  018D                     	;# 
   586  018E                     	;# 
   587  0191                     	;# 
   588  0191                     	;# 
   589  0192                     	;# 
   590  0193                     	;# 
   591  0193                     	;# 
   592  0194                     	;# 
   593  0195                     	;# 
   594  0196                     	;# 
   595  0197                     	;# 
   596  0199                     	;# 
   597  0199                     	;# 
   598  0199                     	;# 
   599  019A                     	;# 
   600  019A                     	;# 
   601  019A                     	;# 
   602  019B                     	;# 
   603  019B                     	;# 
   604  019B                     	;# 
   605  019B                     	;# 
   606  019B                     	;# 
   607  019C                     	;# 
   608  019C                     	;# 
   609  019C                     	;# 
   610  019D                     	;# 
   611  019D                     	;# 
   612  019D                     	;# 
   613  019E                     	;# 
   614  019E                     	;# 
   615  019E                     	;# 
   616  019F                     	;# 
   617  019F                     	;# 
   618  019F                     	;# 
   619  019F                     	;# 
   620  019F                     	;# 
   621  020C                     	;# 
   622  020D                     	;# 
   623  020E                     	;# 
   624  0211                     	;# 
   625  0211                     	;# 
   626  0212                     	;# 
   627  0212                     	;# 
   628  0213                     	;# 
   629  0213                     	;# 
   630  0214                     	;# 
   631  0214                     	;# 
   632  0215                     	;# 
   633  0215                     	;# 
   634  0215                     	;# 
   635  0215                     	;# 
   636  0216                     	;# 
   637  0216                     	;# 
   638  0217                     	;# 
   639  0217                     	;# 
   640  028C                     	;# 
   641  028D                     	;# 
   642  028E                     	;# 
   643  0291                     	;# 
   644  0291                     	;# 
   645  0292                     	;# 
   646  0293                     	;# 
   647  0294                     	;# 
   648  0298                     	;# 
   649  0298                     	;# 
   650  0299                     	;# 
   651  029A                     	;# 
   652  029B                     	;# 
   653  029E                     	;# 
   654  030C                     	;# 
   655  030D                     	;# 
   656  030E                     	;# 
   657  038C                     	;# 
   658  038D                     	;# 
   659  038E                     	;# 
   660  0391                     	;# 
   661  0392                     	;# 
   662  0393                     	;# 
   663  0394                     	;# 
   664  0395                     	;# 
   665  0396                     	;# 
   666  0397                     	;# 
   667  0398                     	;# 
   668  0399                     	;# 
   669  040E                     	;# 
   670  0413                     	;# 
   671  0413                     	;# 
   672  0414                     	;# 
   673  0414                     	;# 
   674  0415                     	;# 
   675  0416                     	;# 
   676  0417                     	;# 
   677  0418                     	;# 
   678  041A                     	;# 
   679  041A                     	;# 
   680  041B                     	;# 
   681  041B                     	;# 
   682  041C                     	;# 
   683  041D                     	;# 
   684  041E                     	;# 
   685  041F                     	;# 
   686  0493                     	;# 
   687  0494                     	;# 
   688  0495                     	;# 
   689  0496                     	;# 
   690  049A                     	;# 
   691  049B                     	;# 
   692  049C                     	;# 
   693  049D                     	;# 
   694  058C                     	;# 
   695  058C                     	;# 
   696  058D                     	;# 
   697  058E                     	;# 
   698  058E                     	;# 
   699  058F                     	;# 
   700  0590                     	;# 
   701  0590                     	;# 
   702  0591                     	;# 
   703  0592                     	;# 
   704  0592                     	;# 
   705  0593                     	;# 
   706  0594                     	;# 
   707  0594                     	;# 
   708  0595                     	;# 
   709  0596                     	;# 
   710  0596                     	;# 
   711  0597                     	;# 
   712  0598                     	;# 
   713  0599                     	;# 
   714  059A                     	;# 
   715  059B                     	;# 
   716  059B                     	;# 
   717  059C                     	;# 
   718  059D                     	;# 
   719  060C                     	;# 
   720  060C                     	;# 
   721  060D                     	;# 
   722  060E                     	;# 
   723  060F                     	;# 
   724  060F                     	;# 
   725  0610                     	;# 
   726  0611                     	;# 
   727  0612                     	;# 
   728  0613                     	;# 
   729  0614                     	;# 
   730  0617                     	;# 
   731  0617                     	;# 
   732  0618                     	;# 
   733  0619                     	;# 
   734  061A                     	;# 
   735  061A                     	;# 
   736  061B                     	;# 
   737  061C                     	;# 
   738  0691                     	;# 
   739  0692                     	;# 
   740  0693                     	;# 
   741  0694                     	;# 
   742  0695                     	;# 
   743  0696                     	;# 
   744  0697                     	;# 
   745  0699                     	;# 
   746  069A                     	;# 
   747  0711                     	;# 
   748  0712                     	;# 
   749  0713                     	;# 
   750  0714                     	;# 
   751  0715                     	;# 
   752  0718                     	;# 
   753  0718                     	;# 
   754  0719                     	;# 
   755  071A                     	;# 
   756  071A                     	;# 
   757  071B                     	;# 
   758  071C                     	;# 
   759  071D                     	;# 
   760  0791                     	;# 
   761  0791                     	;# 
   762  0792                     	;# 
   763  0793                     	;# 
   764  0793                     	;# 
   765  0794                     	;# 
   766  0795                     	;# 
   767  0795                     	;# 
   768  0796                     	;# 
   769  0797                     	;# 
   770  0797                     	;# 
   771  0798                     	;# 
   772  0799                     	;# 
   773  079A                     	;# 
   774  080C                     	;# 
   775  080C                     	;# 
   776  080D                     	;# 
   777  080E                     	;# 
   778  080E                     	;# 
   779  080F                     	;# 
   780  0810                     	;# 
   781  0810                     	;# 
   782  0811                     	;# 
   783  0812                     	;# 
   784  0812                     	;# 
   785  0813                     	;# 
   786  0814                     	;# 
   787  0815                     	;# 
   788  0816                     	;# 
   789  0817                     	;# 
   790  0818                     	;# 
   791  0819                     	;# 
   792  081A                     	;# 
   793  081A                     	;# 
   794  081B                     	;# 
   795  081C                     	;# 
   796  081C                     	;# 
   797  081D                     	;# 
   798  088C                     	;# 
   799  088D                     	;# 
   800  088E                     	;# 
   801  088F                     	;# 
   802  088F                     	;# 
   803  0890                     	;# 
   804  0891                     	;# 
   805  0892                     	;# 
   806  0893                     	;# 
   807  0893                     	;# 
   808  0894                     	;# 
   809  0895                     	;# 
   810  0896                     	;# 
   811  0897                     	;# 
   812  0897                     	;# 
   813  0898                     	;# 
   814  0899                     	;# 
   815  0D8C                     	;# 
   816  0D8C                     	;# 
   817  0D8D                     	;# 
   818  0D8E                     	;# 
   819  0D8F                     	;# 
   820  0D8F                     	;# 
   821  0D90                     	;# 
   822  0D91                     	;# 
   823  0D92                     	;# 
   824  0D92                     	;# 
   825  0D93                     	;# 
   826  0D94                     	;# 
   827  0D95                     	;# 
   828  0D95                     	;# 
   829  0D96                     	;# 
   830  0D97                     	;# 
   831  0D98                     	;# 
   832  0D99                     	;# 
   833  0D9A                     	;# 
   834  0D9B                     	;# 
   835  0D9C                     	;# 
   836  0D9D                     	;# 
   837  0D9E                     	;# 
   838  0D9E                     	;# 
   839  0D9F                     	;# 
   840  0DA0                     	;# 
   841  0DA1                     	;# 
   842  0DA1                     	;# 
   843  0DA2                     	;# 
   844  0DA3                     	;# 
   845  0DA4                     	;# 
   846  0DA4                     	;# 
   847  0DA5                     	;# 
   848  0DA6                     	;# 
   849  0DA7                     	;# 
   850  0DA7                     	;# 
   851  0DA8                     	;# 
   852  0DA9                     	;# 
   853  0DAA                     	;# 
   854  0DAB                     	;# 
   855  0DAC                     	;# 
   856  0DAD                     	;# 
   857  0DAE                     	;# 
   858  0DAF                     	;# 
   859  0E0F                     	;# 
   860  0E10                     	;# 
   861  0E11                     	;# 
   862  0E12                     	;# 
   863  0E13                     	;# 
   864  0E14                     	;# 
   865  0E15                     	;# 
   866  0E16                     	;# 
   867  0E17                     	;# 
   868  0E18                     	;# 
   869  0E19                     	;# 
   870  0E1A                     	;# 
   871  0E1B                     	;# 
   872  0E1C                     	;# 
   873  0E1D                     	;# 
   874  0E1E                     	;# 
   875  0E1F                     	;# 
   876  0E20                     	;# 
   877  0E21                     	;# 
   878  0E22                     	;# 
   879  0E23                     	;# 
   880  0E24                     	;# 
   881  0E25                     	;# 
   882  0E26                     	;# 
   883  0E27                     	;# 
   884  0E28                     	;# 
   885  0E29                     	;# 
   886  0E2A                     	;# 
   887  0E2B                     	;# 
   888  0E2C                     	;# 
   889  0E2D                     	;# 
   890  0E2E                     	;# 
   891  0E90                     	;# 
   892  0E91                     	;# 
   893  0E92                     	;# 
   894  0E94                     	;# 
   895  0E95                     	;# 
   896  0E9C                     	;# 
   897  0E9D                     	;# 
   898  0E9E                     	;# 
   899  0E9F                     	;# 
   900  0EA0                     	;# 
   901  0EA1                     	;# 
   902  0EA2                     	;# 
   903  0EA3                     	;# 
   904  0EA4                     	;# 
   905  0EA5                     	;# 
   906  0EA6                     	;# 
   907  0EA7                     	;# 
   908  0F0F                     	;# 
   909  0F10                     	;# 
   910  0F11                     	;# 
   911  0F12                     	;# 
   912  0F13                     	;# 
   913  0F14                     	;# 
   914  0F15                     	;# 
   915  0F16                     	;# 
   916  0F17                     	;# 
   917  0F18                     	;# 
   918  0F19                     	;# 
   919  0F1A                     	;# 
   920  0F1B                     	;# 
   921  0F1C                     	;# 
   922  0F1D                     	;# 
   923  0F1E                     	;# 
   924  0F1F                     	;# 
   925  0F20                     	;# 
   926  0F21                     	;# 
   927  0F22                     	;# 
   928  0F23                     	;# 
   929  0F24                     	;# 
   930  0F25                     	;# 
   931  0F26                     	;# 
   932  0F27                     	;# 
   933  0F28                     	;# 
   934  0F29                     	;# 
   935  0F2A                     	;# 
   936  0F2B                     	;# 
   937  0F2C                     	;# 
   938  0F2D                     	;# 
   939  0F2E                     	;# 
   940  0F2F                     	;# 
   941  0F30                     	;# 
   942  0F31                     	;# 
   943  0F32                     	;# 
   944  0F33                     	;# 
   945  0F34                     	;# 
   946  0F35                     	;# 
   947  0F36                     	;# 
   948  0F37                     	;# 
   949  0FE4                     	;# 
   950  0FE5                     	;# 
   951  0FE6                     	;# 
   952  0FE7                     	;# 
   953  0FE8                     	;# 
   954  0FE9                     	;# 
   955  0FEA                     	;# 
   956  0FEB                     	;# 
   957  0FED                     	;# 
   958  0FEE                     	;# 
   959  0FEF                     	;# 
   960  0000                     	;# 
   961  0001                     	;# 
   962  0002                     	;# 
   963  0003                     	;# 
   964  0004                     	;# 
   965  0005                     	;# 
   966  0006                     	;# 
   967  0007                     	;# 
   968  0008                     	;# 
   969  0009                     	;# 
   970  000A                     	;# 
   971  000B                     	;# 
   972  000C                     	;# 
   973  000D                     	;# 
   974  000E                     	;# 
   975  0010                     	;# 
   976  0011                     	;# 
   977  0012                     	;# 
   978  0013                     	;# 
   979  0014                     	;# 
   980  0015                     	;# 
   981  0016                     	;# 
   982  0016                     	;# 
   983  0017                     	;# 
   984  0018                     	;# 
   985  0019                     	;# 
   986  001A                     	;# 
   987  001A                     	;# 
   988  001B                     	;# 
   989  001B                     	;# 
   990  001C                     	;# 
   991  001D                     	;# 
   992  001E                     	;# 
   993  001F                     	;# 
   994  008C                     	;# 
   995  008D                     	;# 
   996  008E                     	;# 
   997  0090                     	;# 
   998  0091                     	;# 
   999  0092                     	;# 
  1000  0093                     	;# 
  1001  0094                     	;# 
  1002  0095                     	;# 
  1003  0096                     	;# 
  1004  0098                     	;# 
  1005  0099                     	;# 
  1006  009A                     	;# 
  1007  009B                     	;# 
  1008  009B                     	;# 
  1009  009C                     	;# 
  1010  009D                     	;# 
  1011  009E                     	;# 
  1012  009F                     	;# 
  1013  010C                     	;# 
  1014  010D                     	;# 
  1015  010E                     	;# 
  1016  0111                     	;# 
  1017  0112                     	;# 
  1018  0113                     	;# 
  1019  0114                     	;# 
  1020  0115                     	;# 
  1021  0116                     	;# 
  1022  0117                     	;# 
  1023  0118                     	;# 
  1024  0119                     	;# 
  1025  011C                     	;# 
  1026  018C                     	;# 
  1027  018D                     	;# 
  1028  018E                     	;# 
  1029  0191                     	;# 
  1030  0191                     	;# 
  1031  0192                     	;# 
  1032  0193                     	;# 
  1033  0193                     	;# 
  1034  0194                     	;# 
  1035  0195                     	;# 
  1036  0196                     	;# 
  1037  0197                     	;# 
  1038  0199                     	;# 
  1039  0199                     	;# 
  1040  0199                     	;# 
  1041  019A                     	;# 
  1042  019A                     	;# 
  1043  019A                     	;# 
  1044  019B                     	;# 
  1045  019B                     	;# 
  1046  019B                     	;# 
  1047  019B                     	;# 
  1048  019B                     	;# 
  1049  019C                     	;# 
  1050  019C                     	;# 
  1051  019C                     	;# 
  1052  019D                     	;# 
  1053  019D                     	;# 
  1054  019D                     	;# 
  1055  019E                     	;# 
  1056  019E                     	;# 
  1057  019E                     	;# 
  1058  019F                     	;# 
  1059  019F                     	;# 
  1060  019F                     	;# 
  1061  019F                     	;# 
  1062  019F                     	;# 
  1063  020C                     	;# 
  1064  020D                     	;# 
  1065  020E                     	;# 
  1066  0211                     	;# 
  1067  0211                     	;# 
  1068  0212                     	;# 
  1069  0212                     	;# 
  1070  0213                     	;# 
  1071  0213                     	;# 
  1072  0214                     	;# 
  1073  0214                     	;# 
  1074  0215                     	;# 
  1075  0215                     	;# 
  1076  0215                     	;# 
  1077  0215                     	;# 
  1078  0216                     	;# 
  1079  0216                     	;# 
  1080  0217                     	;# 
  1081  0217                     	;# 
  1082  028C                     	;# 
  1083  028D                     	;# 
  1084  028E                     	;# 
  1085  0291                     	;# 
  1086  0291                     	;# 
  1087  0292                     	;# 
  1088  0293                     	;# 
  1089  0294                     	;# 
  1090  0298                     	;# 
  1091  0298                     	;# 
  1092  0299                     	;# 
  1093  029A                     	;# 
  1094  029B                     	;# 
  1095  029E                     	;# 
  1096  030C                     	;# 
  1097  030D                     	;# 
  1098  030E                     	;# 
  1099  038C                     	;# 
  1100  038D                     	;# 
  1101  038E                     	;# 
  1102  0391                     	;# 
  1103  0392                     	;# 
  1104  0393                     	;# 
  1105  0394                     	;# 
  1106  0395                     	;# 
  1107  0396                     	;# 
  1108  0397                     	;# 
  1109  0398                     	;# 
  1110  0399                     	;# 
  1111  040E                     	;# 
  1112  0413                     	;# 
  1113  0413                     	;# 
  1114  0414                     	;# 
  1115  0414                     	;# 
  1116  0415                     	;# 
  1117  0416                     	;# 
  1118  0417                     	;# 
  1119  0418                     	;# 
  1120  041A                     	;# 
  1121  041A                     	;# 
  1122  041B                     	;# 
  1123  041B                     	;# 
  1124  041C                     	;# 
  1125  041D                     	;# 
  1126  041E                     	;# 
  1127  041F                     	;# 
  1128  0493                     	;# 
  1129  0494                     	;# 
  1130  0495                     	;# 
  1131  0496                     	;# 
  1132  049A                     	;# 
  1133  049B                     	;# 
  1134  049C                     	;# 
  1135  049D                     	;# 
  1136  058C                     	;# 
  1137  058C                     	;# 
  1138  058D                     	;# 
  1139  058E                     	;# 
  1140  058E                     	;# 
  1141  058F                     	;# 
  1142  0590                     	;# 
  1143  0590                     	;# 
  1144  0591                     	;# 
  1145  0592                     	;# 
  1146  0592                     	;# 
  1147  0593                     	;# 
  1148  0594                     	;# 
  1149  0594                     	;# 
  1150  0595                     	;# 
  1151  0596                     	;# 
  1152  0596                     	;# 
  1153  0597                     	;# 
  1154  0598                     	;# 
  1155  0599                     	;# 
  1156  059A                     	;# 
  1157  059B                     	;# 
  1158  059B                     	;# 
  1159  059C                     	;# 
  1160  059D                     	;# 
  1161  060C                     	;# 
  1162  060C                     	;# 
  1163  060D                     	;# 
  1164  060E                     	;# 
  1165  060F                     	;# 
  1166  060F                     	;# 
  1167  0610                     	;# 
  1168  0611                     	;# 
  1169  0612                     	;# 
  1170  0613                     	;# 
  1171  0614                     	;# 
  1172  0617                     	;# 
  1173  0617                     	;# 
  1174  0618                     	;# 
  1175  0619                     	;# 
  1176  061A                     	;# 
  1177  061A                     	;# 
  1178  061B                     	;# 
  1179  061C                     	;# 
  1180  0691                     	;# 
  1181  0692                     	;# 
  1182  0693                     	;# 
  1183  0694                     	;# 
  1184  0695                     	;# 
  1185  0696                     	;# 
  1186  0697                     	;# 
  1187  0699                     	;# 
  1188  069A                     	;# 
  1189  0711                     	;# 
  1190  0712                     	;# 
  1191  0713                     	;# 
  1192  0714                     	;# 
  1193  0715                     	;# 
  1194  0718                     	;# 
  1195  0718                     	;# 
  1196  0719                     	;# 
  1197  071A                     	;# 
  1198  071A                     	;# 
  1199  071B                     	;# 
  1200  071C                     	;# 
  1201  071D                     	;# 
  1202  0791                     	;# 
  1203  0791                     	;# 
  1204  0792                     	;# 
  1205  0793                     	;# 
  1206  0793                     	;# 
  1207  0794                     	;# 
  1208  0795                     	;# 
  1209  0795                     	;# 
  1210  0796                     	;# 
  1211  0797                     	;# 
  1212  0797                     	;# 
  1213  0798                     	;# 
  1214  0799                     	;# 
  1215  079A                     	;# 
  1216  080C                     	;# 
  1217  080C                     	;# 
  1218  080D                     	;# 
  1219  080E                     	;# 
  1220  080E                     	;# 
  1221  080F                     	;# 
  1222  0810                     	;# 
  1223  0810                     	;# 
  1224  0811                     	;# 
  1225  0812                     	;# 
  1226  0812                     	;# 
  1227  0813                     	;# 
  1228  0814                     	;# 
  1229  0815                     	;# 
  1230  0816                     	;# 
  1231  0817                     	;# 
  1232  0818                     	;# 
  1233  0819                     	;# 
  1234  081A                     	;# 
  1235  081A                     	;# 
  1236  081B                     	;# 
  1237  081C                     	;# 
  1238  081C                     	;# 
  1239  081D                     	;# 
  1240  088C                     	;# 
  1241  088D                     	;# 
  1242  088E                     	;# 
  1243  088F                     	;# 
  1244  088F                     	;# 
  1245  0890                     	;# 
  1246  0891                     	;# 
  1247  0892                     	;# 
  1248  0893                     	;# 
  1249  0893                     	;# 
  1250  0894                     	;# 
  1251  0895                     	;# 
  1252  0896                     	;# 
  1253  0897                     	;# 
  1254  0897                     	;# 
  1255  0898                     	;# 
  1256  0899                     	;# 
  1257  0D8C                     	;# 
  1258  0D8C                     	;# 
  1259  0D8D                     	;# 
  1260  0D8E                     	;# 
  1261  0D8F                     	;# 
  1262  0D8F                     	;# 
  1263  0D90                     	;# 
  1264  0D91                     	;# 
  1265  0D92                     	;# 
  1266  0D92                     	;# 
  1267  0D93                     	;# 
  1268  0D94                     	;# 
  1269  0D95                     	;# 
  1270  0D95                     	;# 
  1271  0D96                     	;# 
  1272  0D97                     	;# 
  1273  0D98                     	;# 
  1274  0D99                     	;# 
  1275  0D9A                     	;# 
  1276  0D9B                     	;# 
  1277  0D9C                     	;# 
  1278  0D9D                     	;# 
  1279  0D9E                     	;# 
  1280  0D9E                     	;# 
  1281  0D9F                     	;# 
  1282  0DA0                     	;# 
  1283  0DA1                     	;# 
  1284  0DA1                     	;# 
  1285  0DA2                     	;# 
  1286  0DA3                     	;# 
  1287  0DA4                     	;# 
  1288  0DA4                     	;# 
  1289  0DA5                     	;# 
  1290  0DA6                     	;# 
  1291  0DA7                     	;# 
  1292  0DA7                     	;# 
  1293  0DA8                     	;# 
  1294  0DA9                     	;# 
  1295  0DAA                     	;# 
  1296  0DAB                     	;# 
  1297  0DAC                     	;# 
  1298  0DAD                     	;# 
  1299  0DAE                     	;# 
  1300  0DAF                     	;# 
  1301  0E0F                     	;# 
  1302  0E10                     	;# 
  1303  0E11                     	;# 
  1304  0E12                     	;# 
  1305  0E13                     	;# 
  1306  0E14                     	;# 
  1307  0E15                     	;# 
  1308  0E16                     	;# 
  1309  0E17                     	;# 
  1310  0E18                     	;# 
  1311  0E19                     	;# 
  1312  0E1A                     	;# 
  1313  0E1B                     	;# 
  1314  0E1C                     	;# 
  1315  0E1D                     	;# 
  1316  0E1E                     	;# 
  1317  0E1F                     	;# 
  1318  0E20                     	;# 
  1319  0E21                     	;# 
  1320  0E22                     	;# 
  1321  0E23                     	;# 
  1322  0E24                     	;# 
  1323  0E25                     	;# 
  1324  0E26                     	;# 
  1325  0E27                     	;# 
  1326  0E28                     	;# 
  1327  0E29                     	;# 
  1328  0E2A                     	;# 
  1329  0E2B                     	;# 
  1330  0E2C                     	;# 
  1331  0E2D                     	;# 
  1332  0E2E                     	;# 
  1333  0E90                     	;# 
  1334  0E91                     	;# 
  1335  0E92                     	;# 
  1336  0E94                     	;# 
  1337  0E95                     	;# 
  1338  0E9C                     	;# 
  1339  0E9D                     	;# 
  1340  0E9E                     	;# 
  1341  0E9F                     	;# 
  1342  0EA0                     	;# 
  1343  0EA1                     	;# 
  1344  0EA2                     	;# 
  1345  0EA3                     	;# 
  1346  0EA4                     	;# 
  1347  0EA5                     	;# 
  1348  0EA6                     	;# 
  1349  0EA7                     	;# 
  1350  0F0F                     	;# 
  1351  0F10                     	;# 
  1352  0F11                     	;# 
  1353  0F12                     	;# 
  1354  0F13                     	;# 
  1355  0F14                     	;# 
  1356  0F15                     	;# 
  1357  0F16                     	;# 
  1358  0F17                     	;# 
  1359  0F18                     	;# 
  1360  0F19                     	;# 
  1361  0F1A                     	;# 
  1362  0F1B                     	;# 
  1363  0F1C                     	;# 
  1364  0F1D                     	;# 
  1365  0F1E                     	;# 
  1366  0F1F                     	;# 
  1367  0F20                     	;# 
  1368  0F21                     	;# 
  1369  0F22                     	;# 
  1370  0F23                     	;# 
  1371  0F24                     	;# 
  1372  0F25                     	;# 
  1373  0F26                     	;# 
  1374  0F27                     	;# 
  1375  0F28                     	;# 
  1376  0F29                     	;# 
  1377  0F2A                     	;# 
  1378  0F2B                     	;# 
  1379  0F2C                     	;# 
  1380  0F2D                     	;# 
  1381  0F2E                     	;# 
  1382  0F2F                     	;# 
  1383  0F30                     	;# 
  1384  0F31                     	;# 
  1385  0F32                     	;# 
  1386  0F33                     	;# 
  1387  0F34                     	;# 
  1388  0F35                     	;# 
  1389  0F36                     	;# 
  1390  0F37                     	;# 
  1391  0FE4                     	;# 
  1392  0FE5                     	;# 
  1393  0FE6                     	;# 
  1394  0FE7                     	;# 
  1395  0FE8                     	;# 
  1396  0FE9                     	;# 
  1397  0FEA                     	;# 
  1398  0FEB                     	;# 
  1399  0FED                     	;# 
  1400  0FEE                     	;# 
  1401  0FEF                     	;# 
  1402  0000                     	;# 
  1403  0001                     	;# 
  1404  0002                     	;# 
  1405  0003                     	;# 
  1406  0004                     	;# 
  1407  0005                     	;# 
  1408  0006                     	;# 
  1409  0007                     	;# 
  1410  0008                     	;# 
  1411  0009                     	;# 
  1412  000A                     	;# 
  1413  000B                     	;# 
  1414  000C                     	;# 
  1415  000D                     	;# 
  1416  000E                     	;# 
  1417  0010                     	;# 
  1418  0011                     	;# 
  1419  0012                     	;# 
  1420  0013                     	;# 
  1421  0014                     	;# 
  1422  0015                     	;# 
  1423  0016                     	;# 
  1424  0016                     	;# 
  1425  0017                     	;# 
  1426  0018                     	;# 
  1427  0019                     	;# 
  1428  001A                     	;# 
  1429  001A                     	;# 
  1430  001B                     	;# 
  1431  001B                     	;# 
  1432  001C                     	;# 
  1433  001D                     	;# 
  1434  001E                     	;# 
  1435  001F                     	;# 
  1436  008C                     	;# 
  1437  008D                     	;# 
  1438  008E                     	;# 
  1439  0090                     	;# 
  1440  0091                     	;# 
  1441  0092                     	;# 
  1442  0093                     	;# 
  1443  0094                     	;# 
  1444  0095                     	;# 
  1445  0096                     	;# 
  1446  0098                     	;# 
  1447  0099                     	;# 
  1448  009A                     	;# 
  1449  009B                     	;# 
  1450  009B                     	;# 
  1451  009C                     	;# 
  1452  009D                     	;# 
  1453  009E                     	;# 
  1454  009F                     	;# 
  1455  010C                     	;# 
  1456  010D                     	;# 
  1457  010E                     	;# 
  1458  0111                     	;# 
  1459  0112                     	;# 
  1460  0113                     	;# 
  1461  0114                     	;# 
  1462  0115                     	;# 
  1463  0116                     	;# 
  1464  0117                     	;# 
  1465  0118                     	;# 
  1466  0119                     	;# 
  1467  011C                     	;# 
  1468  018C                     	;# 
  1469  018D                     	;# 
  1470  018E                     	;# 
  1471  0191                     	;# 
  1472  0191                     	;# 
  1473  0192                     	;# 
  1474  0193                     	;# 
  1475  0193                     	;# 
  1476  0194                     	;# 
  1477  0195                     	;# 
  1478  0196                     	;# 
  1479  0197                     	;# 
  1480  0199                     	;# 
  1481  0199                     	;# 
  1482  0199                     	;# 
  1483  019A                     	;# 
  1484  019A                     	;# 
  1485  019A                     	;# 
  1486  019B                     	;# 
  1487  019B                     	;# 
  1488  019B                     	;# 
  1489  019B                     	;# 
  1490  019B                     	;# 
  1491  019C                     	;# 
  1492  019C                     	;# 
  1493  019C                     	;# 
  1494  019D                     	;# 
  1495  019D                     	;# 
  1496  019D                     	;# 
  1497  019E                     	;# 
  1498  019E                     	;# 
  1499  019E                     	;# 
  1500  019F                     	;# 
  1501  019F                     	;# 
  1502  019F                     	;# 
  1503  019F                     	;# 
  1504  019F                     	;# 
  1505  020C                     	;# 
  1506  020D                     	;# 
  1507  020E                     	;# 
  1508  0211                     	;# 
  1509  0211                     	;# 
  1510  0212                     	;# 
  1511  0212                     	;# 
  1512  0213                     	;# 
  1513  0213                     	;# 
  1514  0214                     	;# 
  1515  0214                     	;# 
  1516  0215                     	;# 
  1517  0215                     	;# 
  1518  0215                     	;# 
  1519  0215                     	;# 
  1520  0216                     	;# 
  1521  0216                     	;# 
  1522  0217                     	;# 
  1523  0217                     	;# 
  1524  028C                     	;# 
  1525  028D                     	;# 
  1526  028E                     	;# 
  1527  0291                     	;# 
  1528  0291                     	;# 
  1529  0292                     	;# 
  1530  0293                     	;# 
  1531  0294                     	;# 
  1532  0298                     	;# 
  1533  0298                     	;# 
  1534  0299                     	;# 
  1535  029A                     	;# 
  1536  029B                     	;# 
  1537  029E                     	;# 
  1538  030C                     	;# 
  1539  030D                     	;# 
  1540  030E                     	;# 
  1541  038C                     	;# 
  1542  038D                     	;# 
  1543  038E                     	;# 
  1544  0391                     	;# 
  1545  0392                     	;# 
  1546  0393                     	;# 
  1547  0394                     	;# 
  1548  0395                     	;# 
  1549  0396                     	;# 
  1550  0397                     	;# 
  1551  0398                     	;# 
  1552  0399                     	;# 
  1553  040E                     	;# 
  1554  0413                     	;# 
  1555  0413                     	;# 
  1556  0414                     	;# 
  1557  0414                     	;# 
  1558  0415                     	;# 
  1559  0416                     	;# 
  1560  0417                     	;# 
  1561  0418                     	;# 
  1562  041A                     	;# 
  1563  041A                     	;# 
  1564  041B                     	;# 
  1565  041B                     	;# 
  1566  041C                     	;# 
  1567  041D                     	;# 
  1568  041E                     	;# 
  1569  041F                     	;# 
  1570  0493                     	;# 
  1571  0494                     	;# 
  1572  0495                     	;# 
  1573  0496                     	;# 
  1574  049A                     	;# 
  1575  049B                     	;# 
  1576  049C                     	;# 
  1577  049D                     	;# 
  1578  058C                     	;# 
  1579  058C                     	;# 
  1580  058D                     	;# 
  1581  058E                     	;# 
  1582  058E                     	;# 
  1583  058F                     	;# 
  1584  0590                     	;# 
  1585  0590                     	;# 
  1586  0591                     	;# 
  1587  0592                     	;# 
  1588  0592                     	;# 
  1589  0593                     	;# 
  1590  0594                     	;# 
  1591  0594                     	;# 
  1592  0595                     	;# 
  1593  0596                     	;# 
  1594  0596                     	;# 
  1595  0597                     	;# 
  1596  0598                     	;# 
  1597  0599                     	;# 
  1598  059A                     	;# 
  1599  059B                     	;# 
  1600  059B                     	;# 
  1601  059C                     	;# 
  1602  059D                     	;# 
  1603  060C                     	;# 
  1604  060C                     	;# 
  1605  060D                     	;# 
  1606  060E                     	;# 
  1607  060F                     	;# 
  1608  060F                     	;# 
  1609  0610                     	;# 
  1610  0611                     	;# 
  1611  0612                     	;# 
  1612  0613                     	;# 
  1613  0614                     	;# 
  1614  0617                     	;# 
  1615  0617                     	;# 
  1616  0618                     	;# 
  1617  0619                     	;# 
  1618  061A                     	;# 
  1619  061A                     	;# 
  1620  061B                     	;# 
  1621  061C                     	;# 
  1622  0691                     	;# 
  1623  0692                     	;# 
  1624  0693                     	;# 
  1625  0694                     	;# 
  1626  0695                     	;# 
  1627  0696                     	;# 
  1628  0697                     	;# 
  1629  0699                     	;# 
  1630  069A                     	;# 
  1631  0711                     	;# 
  1632  0712                     	;# 
  1633  0713                     	;# 
  1634  0714                     	;# 
  1635  0715                     	;# 
  1636  0718                     	;# 
  1637  0718                     	;# 
  1638  0719                     	;# 
  1639  071A                     	;# 
  1640  071A                     	;# 
  1641  071B                     	;# 
  1642  071C                     	;# 
  1643  071D                     	;# 
  1644  0791                     	;# 
  1645  0791                     	;# 
  1646  0792                     	;# 
  1647  0793                     	;# 
  1648  0793                     	;# 
  1649  0794                     	;# 
  1650  0795                     	;# 
  1651  0795                     	;# 
  1652  0796                     	;# 
  1653  0797                     	;# 
  1654  0797                     	;# 
  1655  0798                     	;# 
  1656  0799                     	;# 
  1657  079A                     	;# 
  1658  080C                     	;# 
  1659  080C                     	;# 
  1660  080D                     	;# 
  1661  080E                     	;# 
  1662  080E                     	;# 
  1663  080F                     	;# 
  1664  0810                     	;# 
  1665  0810                     	;# 
  1666  0811                     	;# 
  1667  0812                     	;# 
  1668  0812                     	;# 
  1669  0813                     	;# 
  1670  0814                     	;# 
  1671  0815                     	;# 
  1672  0816                     	;# 
  1673  0817                     	;# 
  1674  0818                     	;# 
  1675  0819                     	;# 
  1676  081A                     	;# 
  1677  081A                     	;# 
  1678  081B                     	;# 
  1679  081C                     	;# 
  1680  081C                     	;# 
  1681  081D                     	;# 
  1682  088C                     	;# 
  1683  088D                     	;# 
  1684  088E                     	;# 
  1685  088F                     	;# 
  1686  088F                     	;# 
  1687  0890                     	;# 
  1688  0891                     	;# 
  1689  0892                     	;# 
  1690  0893                     	;# 
  1691  0893                     	;# 
  1692  0894                     	;# 
  1693  0895                     	;# 
  1694  0896                     	;# 
  1695  0897                     	;# 
  1696  0897                     	;# 
  1697  0898                     	;# 
  1698  0899                     	;# 
  1699  0D8C                     	;# 
  1700  0D8C                     	;# 
  1701  0D8D                     	;# 
  1702  0D8E                     	;# 
  1703  0D8F                     	;# 
  1704  0D8F                     	;# 
  1705  0D90                     	;# 
  1706  0D91                     	;# 
  1707  0D92                     	;# 
  1708  0D92                     	;# 
  1709  0D93                     	;# 
  1710  0D94                     	;# 
  1711  0D95                     	;# 
  1712  0D95                     	;# 
  1713  0D96                     	;# 
  1714  0D97                     	;# 
  1715  0D98                     	;# 
  1716  0D99                     	;# 
  1717  0D9A                     	;# 
  1718  0D9B                     	;# 
  1719  0D9C                     	;# 
  1720  0D9D                     	;# 
  1721  0D9E                     	;# 
  1722  0D9E                     	;# 
  1723  0D9F                     	;# 
  1724  0DA0                     	;# 
  1725  0DA1                     	;# 
  1726  0DA1                     	;# 
  1727  0DA2                     	;# 
  1728  0DA3                     	;# 
  1729  0DA4                     	;# 
  1730  0DA4                     	;# 
  1731  0DA5                     	;# 
  1732  0DA6                     	;# 
  1733  0DA7                     	;# 
  1734  0DA7                     	;# 
  1735  0DA8                     	;# 
  1736  0DA9                     	;# 
  1737  0DAA                     	;# 
  1738  0DAB                     	;# 
  1739  0DAC                     	;# 
  1740  0DAD                     	;# 
  1741  0DAE                     	;# 
  1742  0DAF                     	;# 
  1743  0E0F                     	;# 
  1744  0E10                     	;# 
  1745  0E11                     	;# 
  1746  0E12                     	;# 
  1747  0E13                     	;# 
  1748  0E14                     	;# 
  1749  0E15                     	;# 
  1750  0E16                     	;# 
  1751  0E17                     	;# 
  1752  0E18                     	;# 
  1753  0E19                     	;# 
  1754  0E1A                     	;# 
  1755  0E1B                     	;# 
  1756  0E1C                     	;# 
  1757  0E1D                     	;# 
  1758  0E1E                     	;# 
  1759  0E1F                     	;# 
  1760  0E20                     	;# 
  1761  0E21                     	;# 
  1762  0E22                     	;# 
  1763  0E23                     	;# 
  1764  0E24                     	;# 
  1765  0E25                     	;# 
  1766  0E26                     	;# 
  1767  0E27                     	;# 
  1768  0E28                     	;# 
  1769  0E29                     	;# 
  1770  0E2A                     	;# 
  1771  0E2B                     	;# 
  1772  0E2C                     	;# 
  1773  0E2D                     	;# 
  1774  0E2E                     	;# 
  1775  0E90                     	;# 
  1776  0E91                     	;# 
  1777  0E92                     	;# 
  1778  0E94                     	;# 
  1779  0E95                     	;# 
  1780  0E9C                     	;# 
  1781  0E9D                     	;# 
  1782  0E9E                     	;# 
  1783  0E9F                     	;# 
  1784  0EA0                     	;# 
  1785  0EA1                     	;# 
  1786  0EA2                     	;# 
  1787  0EA3                     	;# 
  1788  0EA4                     	;# 
  1789  0EA5                     	;# 
  1790  0EA6                     	;# 
  1791  0EA7                     	;# 
  1792  0F0F                     	;# 
  1793  0F10                     	;# 
  1794  0F11                     	;# 
  1795  0F12                     	;# 
  1796  0F13                     	;# 
  1797  0F14                     	;# 
  1798  0F15                     	;# 
  1799  0F16                     	;# 
  1800  0F17                     	;# 
  1801  0F18                     	;# 
  1802  0F19                     	;# 
  1803  0F1A                     	;# 
  1804  0F1B                     	;# 
  1805  0F1C                     	;# 
  1806  0F1D                     	;# 
  1807  0F1E                     	;# 
  1808  0F1F                     	;# 
  1809  0F20                     	;# 
  1810  0F21                     	;# 
  1811  0F22                     	;# 
  1812  0F23                     	;# 
  1813  0F24                     	;# 
  1814  0F25                     	;# 
  1815  0F26                     	;# 
  1816  0F27                     	;# 
  1817  0F28                     	;# 
  1818  0F29                     	;# 
  1819  0F2A                     	;# 
  1820  0F2B                     	;# 
  1821  0F2C                     	;# 
  1822  0F2D                     	;# 
  1823  0F2E                     	;# 
  1824  0F2F                     	;# 
  1825  0F30                     	;# 
  1826  0F31                     	;# 
  1827  0F32                     	;# 
  1828  0F33                     	;# 
  1829  0F34                     	;# 
  1830  0F35                     	;# 
  1831  0F36                     	;# 
  1832  0F37                     	;# 
  1833  0FE4                     	;# 
  1834  0FE5                     	;# 
  1835  0FE6                     	;# 
  1836  0FE7                     	;# 
  1837  0FE8                     	;# 
  1838  0FE9                     	;# 
  1839  0FEA                     	;# 
  1840  0FEB                     	;# 
  1841  0FED                     	;# 
  1842  0FEE                     	;# 
  1843  0FEF                     	;# 
  1844  0000                     	;# 
  1845  0001                     	;# 
  1846  0002                     	;# 
  1847  0003                     	;# 
  1848  0004                     	;# 
  1849  0005                     	;# 
  1850  0006                     	;# 
  1851  0007                     	;# 
  1852  0008                     	;# 
  1853  0009                     	;# 
  1854  000A                     	;# 
  1855  000B                     	;# 
  1856  000C                     	;# 
  1857  000D                     	;# 
  1858  000E                     	;# 
  1859  0010                     	;# 
  1860  0011                     	;# 
  1861  0012                     	;# 
  1862  0013                     	;# 
  1863  0014                     	;# 
  1864  0015                     	;# 
  1865  0016                     	;# 
  1866  0016                     	;# 
  1867  0017                     	;# 
  1868  0018                     	;# 
  1869  0019                     	;# 
  1870  001A                     	;# 
  1871  001A                     	;# 
  1872  001B                     	;# 
  1873  001B                     	;# 
  1874  001C                     	;# 
  1875  001D                     	;# 
  1876  001E                     	;# 
  1877  001F                     	;# 
  1878  008C                     	;# 
  1879  008D                     	;# 
  1880  008E                     	;# 
  1881  0090                     	;# 
  1882  0091                     	;# 
  1883  0092                     	;# 
  1884  0093                     	;# 
  1885  0094                     	;# 
  1886  0095                     	;# 
  1887  0096                     	;# 
  1888  0098                     	;# 
  1889  0099                     	;# 
  1890  009A                     	;# 
  1891  009B                     	;# 
  1892  009B                     	;# 
  1893  009C                     	;# 
  1894  009D                     	;# 
  1895  009E                     	;# 
  1896  009F                     	;# 
  1897  010C                     	;# 
  1898  010D                     	;# 
  1899  010E                     	;# 
  1900  0111                     	;# 
  1901  0112                     	;# 
  1902  0113                     	;# 
  1903  0114                     	;# 
  1904  0115                     	;# 
  1905  0116                     	;# 
  1906  0117                     	;# 
  1907  0118                     	;# 
  1908  0119                     	;# 
  1909  011C                     	;# 
  1910  018C                     	;# 
  1911  018D                     	;# 
  1912  018E                     	;# 
  1913  0191                     	;# 
  1914  0191                     	;# 
  1915  0192                     	;# 
  1916  0193                     	;# 
  1917  0193                     	;# 
  1918  0194                     	;# 
  1919  0195                     	;# 
  1920  0196                     	;# 
  1921  0197                     	;# 
  1922  0199                     	;# 
  1923  0199                     	;# 
  1924  0199                     	;# 
  1925  019A                     	;# 
  1926  019A                     	;# 
  1927  019A                     	;# 
  1928  019B                     	;# 
  1929  019B                     	;# 
  1930  019B                     	;# 
  1931  019B                     	;# 
  1932  019B                     	;# 
  1933  019C                     	;# 
  1934  019C                     	;# 
  1935  019C                     	;# 
  1936  019D                     	;# 
  1937  019D                     	;# 
  1938  019D                     	;# 
  1939  019E                     	;# 
  1940  019E                     	;# 
  1941  019E                     	;# 
  1942  019F                     	;# 
  1943  019F                     	;# 
  1944  019F                     	;# 
  1945  019F                     	;# 
  1946  019F                     	;# 
  1947  020C                     	;# 
  1948  020D                     	;# 
  1949  020E                     	;# 
  1950  0211                     	;# 
  1951  0211                     	;# 
  1952  0212                     	;# 
  1953  0212                     	;# 
  1954  0213                     	;# 
  1955  0213                     	;# 
  1956  0214                     	;# 
  1957  0214                     	;# 
  1958  0215                     	;# 
  1959  0215                     	;# 
  1960  0215                     	;# 
  1961  0215                     	;# 
  1962  0216                     	;# 
  1963  0216                     	;# 
  1964  0217                     	;# 
  1965  0217                     	;# 
  1966  028C                     	;# 
  1967  028D                     	;# 
  1968  028E                     	;# 
  1969  0291                     	;# 
  1970  0291                     	;# 
  1971  0292                     	;# 
  1972  0293                     	;# 
  1973  0294                     	;# 
  1974  0298                     	;# 
  1975  0298                     	;# 
  1976  0299                     	;# 
  1977  029A                     	;# 
  1978  029B                     	;# 
  1979  029E                     	;# 
  1980  030C                     	;# 
  1981  030D                     	;# 
  1982  030E                     	;# 
  1983  038C                     	;# 
  1984  038D                     	;# 
  1985  038E                     	;# 
  1986  0391                     	;# 
  1987  0392                     	;# 
  1988  0393                     	;# 
  1989  0394                     	;# 
  1990  0395                     	;# 
  1991  0396                     	;# 
  1992  0397                     	;# 
  1993  0398                     	;# 
  1994  0399                     	;# 
  1995  040E                     	;# 
  1996  0413                     	;# 
  1997  0413                     	;# 
  1998  0414                     	;# 
  1999  0414                     	;# 
  2000  0415                     	;# 
  2001  0416                     	;# 
  2002  0417                     	;# 
  2003  0418                     	;# 
  2004  041A                     	;# 
  2005  041A                     	;# 
  2006  041B                     	;# 
  2007  041B                     	;# 
  2008  041C                     	;# 
  2009  041D                     	;# 
  2010  041E                     	;# 
  2011  041F                     	;# 
  2012  0493                     	;# 
  2013  0494                     	;# 
  2014  0495                     	;# 
  2015  0496                     	;# 
  2016  049A                     	;# 
  2017  049B                     	;# 
  2018  049C                     	;# 
  2019  049D                     	;# 
  2020  058C                     	;# 
  2021  058C                     	;# 
  2022  058D                     	;# 
  2023  058E                     	;# 
  2024  058E                     	;# 
  2025  058F                     	;# 
  2026  0590                     	;# 
  2027  0590                     	;# 
  2028  0591                     	;# 
  2029  0592                     	;# 
  2030  0592                     	;# 
  2031  0593                     	;# 
  2032  0594                     	;# 
  2033  0594                     	;# 
  2034  0595                     	;# 
  2035  0596                     	;# 
  2036  0596                     	;# 
  2037  0597                     	;# 
  2038  0598                     	;# 
  2039  0599                     	;# 
  2040  059A                     	;# 
  2041  059B                     	;# 
  2042  059B                     	;# 
  2043  059C                     	;# 
  2044  059D                     	;# 
  2045  060C                     	;# 
  2046  060C                     	;# 
  2047  060D                     	;# 
  2048  060E                     	;# 
  2049  060F                     	;# 
  2050  060F                     	;# 
  2051  0610                     	;# 
  2052  0611                     	;# 
  2053  0612                     	;# 
  2054  0613                     	;# 
  2055  0614                     	;# 
  2056  0617                     	;# 
  2057  0617                     	;# 
  2058  0618                     	;# 
  2059  0619                     	;# 
  2060  061A                     	;# 
  2061  061A                     	;# 
  2062  061B                     	;# 
  2063  061C                     	;# 
  2064  0691                     	;# 
  2065  0692                     	;# 
  2066  0693                     	;# 
  2067  0694                     	;# 
  2068  0695                     	;# 
  2069  0696                     	;# 
  2070  0697                     	;# 
  2071  0699                     	;# 
  2072  069A                     	;# 
  2073  0711                     	;# 
  2074  0712                     	;# 
  2075  0713                     	;# 
  2076  0714                     	;# 
  2077  0715                     	;# 
  2078  0718                     	;# 
  2079  0718                     	;# 
  2080  0719                     	;# 
  2081  071A                     	;# 
  2082  071A                     	;# 
  2083  071B                     	;# 
  2084  071C                     	;# 
  2085  071D                     	;# 
  2086  0791                     	;# 
  2087  0791                     	;# 
  2088  0792                     	;# 
  2089  0793                     	;# 
  2090  0793                     	;# 
  2091  0794                     	;# 
  2092  0795                     	;# 
  2093  0795                     	;# 
  2094  0796                     	;# 
  2095  0797                     	;# 
  2096  0797                     	;# 
  2097  0798                     	;# 
  2098  0799                     	;# 
  2099  079A                     	;# 
  2100  080C                     	;# 
  2101  080C                     	;# 
  2102  080D                     	;# 
  2103  080E                     	;# 
  2104  080E                     	;# 
  2105  080F                     	;# 
  2106  0810                     	;# 
  2107  0810                     	;# 
  2108  0811                     	;# 
  2109  0812                     	;# 
  2110  0812                     	;# 
  2111  0813                     	;# 
  2112  0814                     	;# 
  2113  0815                     	;# 
  2114  0816                     	;# 
  2115  0817                     	;# 
  2116  0818                     	;# 
  2117  0819                     	;# 
  2118  081A                     	;# 
  2119  081A                     	;# 
  2120  081B                     	;# 
  2121  081C                     	;# 
  2122  081C                     	;# 
  2123  081D                     	;# 
  2124  088C                     	;# 
  2125  088D                     	;# 
  2126  088E                     	;# 
  2127  088F                     	;# 
  2128  088F                     	;# 
  2129  0890                     	;# 
  2130  0891                     	;# 
  2131  0892                     	;# 
  2132  0893                     	;# 
  2133  0893                     	;# 
  2134  0894                     	;# 
  2135  0895                     	;# 
  2136  0896                     	;# 
  2137  0897                     	;# 
  2138  0897                     	;# 
  2139  0898                     	;# 
  2140  0899                     	;# 
  2141  0D8C                     	;# 
  2142  0D8C                     	;# 
  2143  0D8D                     	;# 
  2144  0D8E                     	;# 
  2145  0D8F                     	;# 
  2146  0D8F                     	;# 
  2147  0D90                     	;# 
  2148  0D91                     	;# 
  2149  0D92                     	;# 
  2150  0D92                     	;# 
  2151  0D93                     	;# 
  2152  0D94                     	;# 
  2153  0D95                     	;# 
  2154  0D95                     	;# 
  2155  0D96                     	;# 
  2156  0D97                     	;# 
  2157  0D98                     	;# 
  2158  0D99                     	;# 
  2159  0D9A                     	;# 
  2160  0D9B                     	;# 
  2161  0D9C                     	;# 
  2162  0D9D                     	;# 
  2163  0D9E                     	;# 
  2164  0D9E                     	;# 
  2165  0D9F                     	;# 
  2166  0DA0                     	;# 
  2167  0DA1                     	;# 
  2168  0DA1                     	;# 
  2169  0DA2                     	;# 
  2170  0DA3                     	;# 
  2171  0DA4                     	;# 
  2172  0DA4                     	;# 
  2173  0DA5                     	;# 
  2174  0DA6                     	;# 
  2175  0DA7                     	;# 
  2176  0DA7                     	;# 
  2177  0DA8                     	;# 
  2178  0DA9                     	;# 
  2179  0DAA                     	;# 
  2180  0DAB                     	;# 
  2181  0DAC                     	;# 
  2182  0DAD                     	;# 
  2183  0DAE                     	;# 
  2184  0DAF                     	;# 
  2185  0E0F                     	;# 
  2186  0E10                     	;# 
  2187  0E11                     	;# 
  2188  0E12                     	;# 
  2189  0E13                     	;# 
  2190  0E14                     	;# 
  2191  0E15                     	;# 
  2192  0E16                     	;# 
  2193  0E17                     	;# 
  2194  0E18                     	;# 
  2195  0E19                     	;# 
  2196  0E1A                     	;# 
  2197  0E1B                     	;# 
  2198  0E1C                     	;# 
  2199  0E1D                     	;# 
  2200  0E1E                     	;# 
  2201  0E1F                     	;# 
  2202  0E20                     	;# 
  2203  0E21                     	;# 
  2204  0E22                     	;# 
  2205  0E23                     	;# 
  2206  0E24                     	;# 
  2207  0E25                     	;# 
  2208  0E26                     	;# 
  2209  0E27                     	;# 
  2210  0E28                     	;# 
  2211  0E29                     	;# 
  2212  0E2A                     	;# 
  2213  0E2B                     	;# 
  2214  0E2C                     	;# 
  2215  0E2D                     	;# 
  2216  0E2E                     	;# 
  2217  0E90                     	;# 
  2218  0E91                     	;# 
  2219  0E92                     	;# 
  2220  0E94                     	;# 
  2221  0E95                     	;# 
  2222  0E9C                     	;# 
  2223  0E9D                     	;# 
  2224  0E9E                     	;# 
  2225  0E9F                     	;# 
  2226  0EA0                     	;# 
  2227  0EA1                     	;# 
  2228  0EA2                     	;# 
  2229  0EA3                     	;# 
  2230  0EA4                     	;# 
  2231  0EA5                     	;# 
  2232  0EA6                     	;# 
  2233  0EA7                     	;# 
  2234  0F0F                     	;# 
  2235  0F10                     	;# 
  2236  0F11                     	;# 
  2237  0F12                     	;# 
  2238  0F13                     	;# 
  2239  0F14                     	;# 
  2240  0F15                     	;# 
  2241  0F16                     	;# 
  2242  0F17                     	;# 
  2243  0F18                     	;# 
  2244  0F19                     	;# 
  2245  0F1A                     	;# 
  2246  0F1B                     	;# 
  2247  0F1C                     	;# 
  2248  0F1D                     	;# 
  2249  0F1E                     	;# 
  2250  0F1F                     	;# 
  2251  0F20                     	;# 
  2252  0F21                     	;# 
  2253  0F22                     	;# 
  2254  0F23                     	;# 
  2255  0F24                     	;# 
  2256  0F25                     	;# 
  2257  0F26                     	;# 
  2258  0F27                     	;# 
  2259  0F28                     	;# 
  2260  0F29                     	;# 
  2261  0F2A                     	;# 
  2262  0F2B                     	;# 
  2263  0F2C                     	;# 
  2264  0F2D                     	;# 
  2265  0F2E                     	;# 
  2266  0F2F                     	;# 
  2267  0F30                     	;# 
  2268  0F31                     	;# 
  2269  0F32                     	;# 
  2270  0F33                     	;# 
  2271  0F34                     	;# 
  2272  0F35                     	;# 
  2273  0F36                     	;# 
  2274  0F37                     	;# 
  2275  0FE4                     	;# 
  2276  0FE5                     	;# 
  2277  0FE6                     	;# 
  2278  0FE7                     	;# 
  2279  0FE8                     	;# 
  2280  0FE9                     	;# 
  2281  0FEA                     	;# 
  2282  0FEB                     	;# 
  2283  0FED                     	;# 
  2284  0FEE                     	;# 
  2285  0FEF                     	;# 
  2286  0000                     	;# 
  2287  0001                     	;# 
  2288  0002                     	;# 
  2289  0003                     	;# 
  2290  0004                     	;# 
  2291  0005                     	;# 
  2292  0006                     	;# 
  2293  0007                     	;# 
  2294  0008                     	;# 
  2295  0009                     	;# 
  2296  000A                     	;# 
  2297  000B                     	;# 
  2298  000C                     	;# 
  2299  000D                     	;# 
  2300  000E                     	;# 
  2301  0010                     	;# 
  2302  0011                     	;# 
  2303  0012                     	;# 
  2304  0013                     	;# 
  2305  0014                     	;# 
  2306  0015                     	;# 
  2307  0016                     	;# 
  2308  0016                     	;# 
  2309  0017                     	;# 
  2310  0018                     	;# 
  2311  0019                     	;# 
  2312  001A                     	;# 
  2313  001A                     	;# 
  2314  001B                     	;# 
  2315  001B                     	;# 
  2316  001C                     	;# 
  2317  001D                     	;# 
  2318  001E                     	;# 
  2319  001F                     	;# 
  2320  008C                     	;# 
  2321  008D                     	;# 
  2322  008E                     	;# 
  2323  0090                     	;# 
  2324  0091                     	;# 
  2325  0092                     	;# 
  2326  0093                     	;# 
  2327  0094                     	;# 
  2328  0095                     	;# 
  2329  0096                     	;# 
  2330  0098                     	;# 
  2331  0099                     	;# 
  2332  009A                     	;# 
  2333  009B                     	;# 
  2334  009B                     	;# 
  2335  009C                     	;# 
  2336  009D                     	;# 
  2337  009E                     	;# 
  2338  009F                     	;# 
  2339  010C                     	;# 
  2340  010D                     	;# 
  2341  010E                     	;# 
  2342  0111                     	;# 
  2343  0112                     	;# 
  2344  0113                     	;# 
  2345  0114                     	;# 
  2346  0115                     	;# 
  2347  0116                     	;# 
  2348  0117                     	;# 
  2349  0118                     	;# 
  2350  0119                     	;# 
  2351  011C                     	;# 
  2352  018C                     	;# 
  2353  018D                     	;# 
  2354  018E                     	;# 
  2355  0191                     	;# 
  2356  0191                     	;# 
  2357  0192                     	;# 
  2358  0193                     	;# 
  2359  0193                     	;# 
  2360  0194                     	;# 
  2361  0195                     	;# 
  2362  0196                     	;# 
  2363  0197                     	;# 
  2364  0199                     	;# 
  2365  0199                     	;# 
  2366  0199                     	;# 
  2367  019A                     	;# 
  2368  019A                     	;# 
  2369  019A                     	;# 
  2370  019B                     	;# 
  2371  019B                     	;# 
  2372  019B                     	;# 
  2373  019B                     	;# 
  2374  019B                     	;# 
  2375  019C                     	;# 
  2376  019C                     	;# 
  2377  019C                     	;# 
  2378  019D                     	;# 
  2379  019D                     	;# 
  2380  019D                     	;# 
  2381  019E                     	;# 
  2382  019E                     	;# 
  2383  019E                     	;# 
  2384  019F                     	;# 
  2385  019F                     	;# 
  2386  019F                     	;# 
  2387  019F                     	;# 
  2388  019F                     	;# 
  2389  020C                     	;# 
  2390  020D                     	;# 
  2391  020E                     	;# 
  2392  0211                     	;# 
  2393  0211                     	;# 
  2394  0212                     	;# 
  2395  0212                     	;# 
  2396  0213                     	;# 
  2397  0213                     	;# 
  2398  0214                     	;# 
  2399  0214                     	;# 
  2400  0215                     	;# 
  2401  0215                     	;# 
  2402  0215                     	;# 
  2403  0215                     	;# 
  2404  0216                     	;# 
  2405  0216                     	;# 
  2406  0217                     	;# 
  2407  0217                     	;# 
  2408  028C                     	;# 
  2409  028D                     	;# 
  2410  028E                     	;# 
  2411  0291                     	;# 
  2412  0291                     	;# 
  2413  0292                     	;# 
  2414  0293                     	;# 
  2415  0294                     	;# 
  2416  0298                     	;# 
  2417  0298                     	;# 
  2418  0299                     	;# 
  2419  029A                     	;# 
  2420  029B                     	;# 
  2421  029E                     	;# 
  2422  030C                     	;# 
  2423  030D                     	;# 
  2424  030E                     	;# 
  2425  038C                     	;# 
  2426  038D                     	;# 
  2427  038E                     	;# 
  2428  0391                     	;# 
  2429  0392                     	;# 
  2430  0393                     	;# 
  2431  0394                     	;# 
  2432  0395                     	;# 
  2433  0396                     	;# 
  2434  0397                     	;# 
  2435  0398                     	;# 
  2436  0399                     	;# 
  2437  040E                     	;# 
  2438  0413                     	;# 
  2439  0413                     	;# 
  2440  0414                     	;# 
  2441  0414                     	;# 
  2442  0415                     	;# 
  2443  0416                     	;# 
  2444  0417                     	;# 
  2445  0418                     	;# 
  2446  041A                     	;# 
  2447  041A                     	;# 
  2448  041B                     	;# 
  2449  041B                     	;# 
  2450  041C                     	;# 
  2451  041D                     	;# 
  2452  041E                     	;# 
  2453  041F                     	;# 
  2454  0493                     	;# 
  2455  0494                     	;# 
  2456  0495                     	;# 
  2457  0496                     	;# 
  2458  049A                     	;# 
  2459  049B                     	;# 
  2460  049C                     	;# 
  2461  049D                     	;# 
  2462  058C                     	;# 
  2463  058C                     	;# 
  2464  058D                     	;# 
  2465  058E                     	;# 
  2466  058E                     	;# 
  2467  058F                     	;# 
  2468  0590                     	;# 
  2469  0590                     	;# 
  2470  0591                     	;# 
  2471  0592                     	;# 
  2472  0592                     	;# 
  2473  0593                     	;# 
  2474  0594                     	;# 
  2475  0594                     	;# 
  2476  0595                     	;# 
  2477  0596                     	;# 
  2478  0596                     	;# 
  2479  0597                     	;# 
  2480  0598                     	;# 
  2481  0599                     	;# 
  2482  059A                     	;# 
  2483  059B                     	;# 
  2484  059B                     	;# 
  2485  059C                     	;# 
  2486  059D                     	;# 
  2487  060C                     	;# 
  2488  060C                     	;# 
  2489  060D                     	;# 
  2490  060E                     	;# 
  2491  060F                     	;# 
  2492  060F                     	;# 
  2493  0610                     	;# 
  2494  0611                     	;# 
  2495  0612                     	;# 
  2496  0613                     	;# 
  2497  0614                     	;# 
  2498  0617                     	;# 
  2499  0617                     	;# 
  2500  0618                     	;# 
  2501  0619                     	;# 
  2502  061A                     	;# 
  2503  061A                     	;# 
  2504  061B                     	;# 
  2505  061C                     	;# 
  2506  0691                     	;# 
  2507  0692                     	;# 
  2508  0693                     	;# 
  2509  0694                     	;# 
  2510  0695                     	;# 
  2511  0696                     	;# 
  2512  0697                     	;# 
  2513  0699                     	;# 
  2514  069A                     	;# 
  2515  0711                     	;# 
  2516  0712                     	;# 
  2517  0713                     	;# 
  2518  0714                     	;# 
  2519  0715                     	;# 
  2520  0718                     	;# 
  2521  0718                     	;# 
  2522  0719                     	;# 
  2523  071A                     	;# 
  2524  071A                     	;# 
  2525  071B                     	;# 
  2526  071C                     	;# 
  2527  071D                     	;# 
  2528  0791                     	;# 
  2529  0791                     	;# 
  2530  0792                     	;# 
  2531  0793                     	;# 
  2532  0793                     	;# 
  2533  0794                     	;# 
  2534  0795                     	;# 
  2535  0795                     	;# 
  2536  0796                     	;# 
  2537  0797                     	;# 
  2538  0797                     	;# 
  2539  0798                     	;# 
  2540  0799                     	;# 
  2541  079A                     	;# 
  2542  080C                     	;# 
  2543  080C                     	;# 
  2544  080D                     	;# 
  2545  080E                     	;# 
  2546  080E                     	;# 
  2547  080F                     	;# 
  2548  0810                     	;# 
  2549  0810                     	;# 
  2550  0811                     	;# 
  2551  0812                     	;# 
  2552  0812                     	;# 
  2553  0813                     	;# 
  2554  0814                     	;# 
  2555  0815                     	;# 
  2556  0816                     	;# 
  2557  0817                     	;# 
  2558  0818                     	;# 
  2559  0819                     	;# 
  2560  081A                     	;# 
  2561  081A                     	;# 
  2562  081B                     	;# 
  2563  081C                     	;# 
  2564  081C                     	;# 
  2565  081D                     	;# 
  2566  088C                     	;# 
  2567  088D                     	;# 
  2568  088E                     	;# 
  2569  088F                     	;# 
  2570  088F                     	;# 
  2571  0890                     	;# 
  2572  0891                     	;# 
  2573  0892                     	;# 
  2574  0893                     	;# 
  2575  0893                     	;# 
  2576  0894                     	;# 
  2577  0895                     	;# 
  2578  0896                     	;# 
  2579  0897                     	;# 
  2580  0897                     	;# 
  2581  0898                     	;# 
  2582  0899                     	;# 
  2583  0D8C                     	;# 
  2584  0D8C                     	;# 
  2585  0D8D                     	;# 
  2586  0D8E                     	;# 
  2587  0D8F                     	;# 
  2588  0D8F                     	;# 
  2589  0D90                     	;# 
  2590  0D91                     	;# 
  2591  0D92                     	;# 
  2592  0D92                     	;# 
  2593  0D93                     	;# 
  2594  0D94                     	;# 
  2595  0D95                     	;# 
  2596  0D95                     	;# 
  2597  0D96                     	;# 
  2598  0D97                     	;# 
  2599  0D98                     	;# 
  2600  0D99                     	;# 
  2601  0D9A                     	;# 
  2602  0D9B                     	;# 
  2603  0D9C                     	;# 
  2604  0D9D                     	;# 
  2605  0D9E                     	;# 
  2606  0D9E                     	;# 
  2607  0D9F                     	;# 
  2608  0DA0                     	;# 
  2609  0DA1                     	;# 
  2610  0DA1                     	;# 
  2611  0DA2                     	;# 
  2612  0DA3                     	;# 
  2613  0DA4                     	;# 
  2614  0DA4                     	;# 
  2615  0DA5                     	;# 
  2616  0DA6                     	;# 
  2617  0DA7                     	;# 
  2618  0DA7                     	;# 
  2619  0DA8                     	;# 
  2620  0DA9                     	;# 
  2621  0DAA                     	;# 
  2622  0DAB                     	;# 
  2623  0DAC                     	;# 
  2624  0DAD                     	;# 
  2625  0DAE                     	;# 
  2626  0DAF                     	;# 
  2627  0E0F                     	;# 
  2628  0E10                     	;# 
  2629  0E11                     	;# 
  2630  0E12                     	;# 
  2631  0E13                     	;# 
  2632  0E14                     	;# 
  2633  0E15                     	;# 
  2634  0E16                     	;# 
  2635  0E17                     	;# 
  2636  0E18                     	;# 
  2637  0E19                     	;# 
  2638  0E1A                     	;# 
  2639  0E1B                     	;# 
  2640  0E1C                     	;# 
  2641  0E1D                     	;# 
  2642  0E1E                     	;# 
  2643  0E1F                     	;# 
  2644  0E20                     	;# 
  2645  0E21                     	;# 
  2646  0E22                     	;# 
  2647  0E23                     	;# 
  2648  0E24                     	;# 
  2649  0E25                     	;# 
  2650  0E26                     	;# 
  2651  0E27                     	;# 
  2652  0E28                     	;# 
  2653  0E29                     	;# 
  2654  0E2A                     	;# 
  2655  0E2B                     	;# 
  2656  0E2C                     	;# 
  2657  0E2D                     	;# 
  2658  0E2E                     	;# 
  2659  0E90                     	;# 
  2660  0E91                     	;# 
  2661  0E92                     	;# 
  2662  0E94                     	;# 
  2663  0E95                     	;# 
  2664  0E9C                     	;# 
  2665  0E9D                     	;# 
  2666  0E9E                     	;# 
  2667  0E9F                     	;# 
  2668  0EA0                     	;# 
  2669  0EA1                     	;# 
  2670  0EA2                     	;# 
  2671  0EA3                     	;# 
  2672  0EA4                     	;# 
  2673  0EA5                     	;# 
  2674  0EA6                     	;# 
  2675  0EA7                     	;# 
  2676  0F0F                     	;# 
  2677  0F10                     	;# 
  2678  0F11                     	;# 
  2679  0F12                     	;# 
  2680  0F13                     	;# 
  2681  0F14                     	;# 
  2682  0F15                     	;# 
  2683  0F16                     	;# 
  2684  0F17                     	;# 
  2685  0F18                     	;# 
  2686  0F19                     	;# 
  2687  0F1A                     	;# 
  2688  0F1B                     	;# 
  2689  0F1C                     	;# 
  2690  0F1D                     	;# 
  2691  0F1E                     	;# 
  2692  0F1F                     	;# 
  2693  0F20                     	;# 
  2694  0F21                     	;# 
  2695  0F22                     	;# 
  2696  0F23                     	;# 
  2697  0F24                     	;# 
  2698  0F25                     	;# 
  2699  0F26                     	;# 
  2700  0F27                     	;# 
  2701  0F28                     	;# 
  2702  0F29                     	;# 
  2703  0F2A                     	;# 
  2704  0F2B                     	;# 
  2705  0F2C                     	;# 
  2706  0F2D                     	;# 
  2707  0F2E                     	;# 
  2708  0F2F                     	;# 
  2709  0F30                     	;# 
  2710  0F31                     	;# 
  2711  0F32                     	;# 
  2712  0F33                     	;# 
  2713  0F34                     	;# 
  2714  0F35                     	;# 
  2715  0F36                     	;# 
  2716  0F37                     	;# 
  2717  0FE4                     	;# 
  2718  0FE5                     	;# 
  2719  0FE6                     	;# 
  2720  0FE7                     	;# 
  2721  0FE8                     	;# 
  2722  0FE9                     	;# 
  2723  0FEA                     	;# 
  2724  0FEB                     	;# 
  2725  0FED                     	;# 
  2726  0FEE                     	;# 
  2727  0FEF                     	;# 
  2728  0000                     	;# 
  2729  0001                     	;# 
  2730  0002                     	;# 
  2731  0003                     	;# 
  2732  0004                     	;# 
  2733  0005                     	;# 
  2734  0006                     	;# 
  2735  0007                     	;# 
  2736  0008                     	;# 
  2737  0009                     	;# 
  2738  000A                     	;# 
  2739  000B                     	;# 
  2740  000C                     	;# 
  2741  000D                     	;# 
  2742  000E                     	;# 
  2743  0010                     	;# 
  2744  0011                     	;# 
  2745  0012                     	;# 
  2746  0013                     	;# 
  2747  0014                     	;# 
  2748  0015                     	;# 
  2749  0016                     	;# 
  2750  0016                     	;# 
  2751  0017                     	;# 
  2752  0018                     	;# 
  2753  0019                     	;# 
  2754  001A                     	;# 
  2755  001A                     	;# 
  2756  001B                     	;# 
  2757  001B                     	;# 
  2758  001C                     	;# 
  2759  001D                     	;# 
  2760  001E                     	;# 
  2761  001F                     	;# 
  2762  008C                     	;# 
  2763  008D                     	;# 
  2764  008E                     	;# 
  2765  0090                     	;# 
  2766  0091                     	;# 
  2767  0092                     	;# 
  2768  0093                     	;# 
  2769  0094                     	;# 
  2770  0095                     	;# 
  2771  0096                     	;# 
  2772  0098                     	;# 
  2773  0099                     	;# 
  2774  009A                     	;# 
  2775  009B                     	;# 
  2776  009B                     	;# 
  2777  009C                     	;# 
  2778  009D                     	;# 
  2779  009E                     	;# 
  2780  009F                     	;# 
  2781  010C                     	;# 
  2782  010D                     	;# 
  2783  010E                     	;# 
  2784  0111                     	;# 
  2785  0112                     	;# 
  2786  0113                     	;# 
  2787  0114                     	;# 
  2788  0115                     	;# 
  2789  0116                     	;# 
  2790  0117                     	;# 
  2791  0118                     	;# 
  2792  0119                     	;# 
  2793  011C                     	;# 
  2794  018C                     	;# 
  2795  018D                     	;# 
  2796  018E                     	;# 
  2797  0191                     	;# 
  2798  0191                     	;# 
  2799  0192                     	;# 
  2800  0193                     	;# 
  2801  0193                     	;# 
  2802  0194                     	;# 
  2803  0195                     	;# 
  2804  0196                     	;# 
  2805  0197                     	;# 
  2806  0199                     	;# 
  2807  0199                     	;# 
  2808  0199                     	;# 
  2809  019A                     	;# 
  2810  019A                     	;# 
  2811  019A                     	;# 
  2812  019B                     	;# 
  2813  019B                     	;# 
  2814  019B                     	;# 
  2815  019B                     	;# 
  2816  019B                     	;# 
  2817  019C                     	;# 
  2818  019C                     	;# 
  2819  019C                     	;# 
  2820  019D                     	;# 
  2821  019D                     	;# 
  2822  019D                     	;# 
  2823  019E                     	;# 
  2824  019E                     	;# 
  2825  019E                     	;# 
  2826  019F                     	;# 
  2827  019F                     	;# 
  2828  019F                     	;# 
  2829  019F                     	;# 
  2830  019F                     	;# 
  2831  020C                     	;# 
  2832  020D                     	;# 
  2833  020E                     	;# 
  2834  0211                     	;# 
  2835  0211                     	;# 
  2836  0212                     	;# 
  2837  0212                     	;# 
  2838  0213                     	;# 
  2839  0213                     	;# 
  2840  0214                     	;# 
  2841  0214                     	;# 
  2842  0215                     	;# 
  2843  0215                     	;# 
  2844  0215                     	;# 
  2845  0215                     	;# 
  2846  0216                     	;# 
  2847  0216                     	;# 
  2848  0217                     	;# 
  2849  0217                     	;# 
  2850  028C                     	;# 
  2851  028D                     	;# 
  2852  028E                     	;# 
  2853  0291                     	;# 
  2854  0291                     	;# 
  2855  0292                     	;# 
  2856  0293                     	;# 
  2857  0294                     	;# 
  2858  0298                     	;# 
  2859  0298                     	;# 
  2860  0299                     	;# 
  2861  029A                     	;# 
  2862  029B                     	;# 
  2863  029E                     	;# 
  2864  030C                     	;# 
  2865  030D                     	;# 
  2866  030E                     	;# 
  2867  038C                     	;# 
  2868  038D                     	;# 
  2869  038E                     	;# 
  2870  0391                     	;# 
  2871  0392                     	;# 
  2872  0393                     	;# 
  2873  0394                     	;# 
  2874  0395                     	;# 
  2875  0396                     	;# 
  2876  0397                     	;# 
  2877  0398                     	;# 
  2878  0399                     	;# 
  2879  040E                     	;# 
  2880  0413                     	;# 
  2881  0413                     	;# 
  2882  0414                     	;# 
  2883  0414                     	;# 
  2884  0415                     	;# 
  2885  0416                     	;# 
  2886  0417                     	;# 
  2887  0418                     	;# 
  2888  041A                     	;# 
  2889  041A                     	;# 
  2890  041B                     	;# 
  2891  041B                     	;# 
  2892  041C                     	;# 
  2893  041D                     	;# 
  2894  041E                     	;# 
  2895  041F                     	;# 
  2896  0493                     	;# 
  2897  0494                     	;# 
  2898  0495                     	;# 
  2899  0496                     	;# 
  2900  049A                     	;# 
  2901  049B                     	;# 
  2902  049C                     	;# 
  2903  049D                     	;# 
  2904  058C                     	;# 
  2905  058C                     	;# 
  2906  058D                     	;# 
  2907  058E                     	;# 
  2908  058E                     	;# 
  2909  058F                     	;# 
  2910  0590                     	;# 
  2911  0590                     	;# 
  2912  0591                     	;# 
  2913  0592                     	;# 
  2914  0592                     	;# 
  2915  0593                     	;# 
  2916  0594                     	;# 
  2917  0594                     	;# 
  2918  0595                     	;# 
  2919  0596                     	;# 
  2920  0596                     	;# 
  2921  0597                     	;# 
  2922  0598                     	;# 
  2923  0599                     	;# 
  2924  059A                     	;# 
  2925  059B                     	;# 
  2926  059B                     	;# 
  2927  059C                     	;# 
  2928  059D                     	;# 
  2929  060C                     	;# 
  2930  060C                     	;# 
  2931  060D                     	;# 
  2932  060E                     	;# 
  2933  060F                     	;# 
  2934  060F                     	;# 
  2935  0610                     	;# 
  2936  0611                     	;# 
  2937  0612                     	;# 
  2938  0613                     	;# 
  2939  0614                     	;# 
  2940  0617                     	;# 
  2941  0617                     	;# 
  2942  0618                     	;# 
  2943  0619                     	;# 
  2944  061A                     	;# 
  2945  061A                     	;# 
  2946  061B                     	;# 
  2947  061C                     	;# 
  2948  0691                     	;# 
  2949  0692                     	;# 
  2950  0693                     	;# 
  2951  0694                     	;# 
  2952  0695                     	;# 
  2953  0696                     	;# 
  2954  0697                     	;# 
  2955  0699                     	;# 
  2956  069A                     	;# 
  2957  0711                     	;# 
  2958  0712                     	;# 
  2959  0713                     	;# 
  2960  0714                     	;# 
  2961  0715                     	;# 
  2962  0718                     	;# 
  2963  0718                     	;# 
  2964  0719                     	;# 
  2965  071A                     	;# 
  2966  071A                     	;# 
  2967  071B                     	;# 
  2968  071C                     	;# 
  2969  071D                     	;# 
  2970  0791                     	;# 
  2971  0791                     	;# 
  2972  0792                     	;# 
  2973  0793                     	;# 
  2974  0793                     	;# 
  2975  0794                     	;# 
  2976  0795                     	;# 
  2977  0795                     	;# 
  2978  0796                     	;# 
  2979  0797                     	;# 
  2980  0797                     	;# 
  2981  0798                     	;# 
  2982  0799                     	;# 
  2983  079A                     	;# 
  2984  080C                     	;# 
  2985  080C                     	;# 
  2986  080D                     	;# 
  2987  080E                     	;# 
  2988  080E                     	;# 
  2989  080F                     	;# 
  2990  0810                     	;# 
  2991  0810                     	;# 
  2992  0811                     	;# 
  2993  0812                     	;# 
  2994  0812                     	;# 
  2995  0813                     	;# 
  2996  0814                     	;# 
  2997  0815                     	;# 
  2998  0816                     	;# 
  2999  0817                     	;# 
  3000  0818                     	;# 
  3001  0819                     	;# 
  3002  081A                     	;# 
  3003  081A                     	;# 
  3004  081B                     	;# 
  3005  081C                     	;# 
  3006  081C                     	;# 
  3007  081D                     	;# 
  3008  088C                     	;# 
  3009  088D                     	;# 
  3010  088E                     	;# 
  3011  088F                     	;# 
  3012  088F                     	;# 
  3013  0890                     	;# 
  3014  0891                     	;# 
  3015  0892                     	;# 
  3016  0893                     	;# 
  3017  0893                     	;# 
  3018  0894                     	;# 
  3019  0895                     	;# 
  3020  0896                     	;# 
  3021  0897                     	;# 
  3022  0897                     	;# 
  3023  0898                     	;# 
  3024  0899                     	;# 
  3025  0D8C                     	;# 
  3026  0D8C                     	;# 
  3027  0D8D                     	;# 
  3028  0D8E                     	;# 
  3029  0D8F                     	;# 
  3030  0D8F                     	;# 
  3031  0D90                     	;# 
  3032  0D91                     	;# 
  3033  0D92                     	;# 
  3034  0D92                     	;# 
  3035  0D93                     	;# 
  3036  0D94                     	;# 
  3037  0D95                     	;# 
  3038  0D95                     	;# 
  3039  0D96                     	;# 
  3040  0D97                     	;# 
  3041  0D98                     	;# 
  3042  0D99                     	;# 
  3043  0D9A                     	;# 
  3044  0D9B                     	;# 
  3045  0D9C                     	;# 
  3046  0D9D                     	;# 
  3047  0D9E                     	;# 
  3048  0D9E                     	;# 
  3049  0D9F                     	;# 
  3050  0DA0                     	;# 
  3051  0DA1                     	;# 
  3052  0DA1                     	;# 
  3053  0DA2                     	;# 
  3054  0DA3                     	;# 
  3055  0DA4                     	;# 
  3056  0DA4                     	;# 
  3057  0DA5                     	;# 
  3058  0DA6                     	;# 
  3059  0DA7                     	;# 
  3060  0DA7                     	;# 
  3061  0DA8                     	;# 
  3062  0DA9                     	;# 
  3063  0DAA                     	;# 
  3064  0DAB                     	;# 
  3065  0DAC                     	;# 
  3066  0DAD                     	;# 
  3067  0DAE                     	;# 
  3068  0DAF                     	;# 
  3069  0E0F                     	;# 
  3070  0E10                     	;# 
  3071  0E11                     	;# 
  3072  0E12                     	;# 
  3073  0E13                     	;# 
  3074  0E14                     	;# 
  3075  0E15                     	;# 
  3076  0E16                     	;# 
  3077  0E17                     	;# 
  3078  0E18                     	;# 
  3079  0E19                     	;# 
  3080  0E1A                     	;# 
  3081  0E1B                     	;# 
  3082  0E1C                     	;# 
  3083  0E1D                     	;# 
  3084  0E1E                     	;# 
  3085  0E1F                     	;# 
  3086  0E20                     	;# 
  3087  0E21                     	;# 
  3088  0E22                     	;# 
  3089  0E23                     	;# 
  3090  0E24                     	;# 
  3091  0E25                     	;# 
  3092  0E26                     	;# 
  3093  0E27                     	;# 
  3094  0E28                     	;# 
  3095  0E29                     	;# 
  3096  0E2A                     	;# 
  3097  0E2B                     	;# 
  3098  0E2C                     	;# 
  3099  0E2D                     	;# 
  3100  0E2E                     	;# 
  3101  0E90                     	;# 
  3102  0E91                     	;# 
  3103  0E92                     	;# 
  3104  0E94                     	;# 
  3105  0E95                     	;# 
  3106  0E9C                     	;# 
  3107  0E9D                     	;# 
  3108  0E9E                     	;# 
  3109  0E9F                     	;# 
  3110  0EA0                     	;# 
  3111  0EA1                     	;# 
  3112  0EA2                     	;# 
  3113  0EA3                     	;# 
  3114  0EA4                     	;# 
  3115  0EA5                     	;# 
  3116  0EA6                     	;# 
  3117  0EA7                     	;# 
  3118  0F0F                     	;# 
  3119  0F10                     	;# 
  3120  0F11                     	;# 
  3121  0F12                     	;# 
  3122  0F13                     	;# 
  3123  0F14                     	;# 
  3124  0F15                     	;# 
  3125  0F16                     	;# 
  3126  0F17                     	;# 
  3127  0F18                     	;# 
  3128  0F19                     	;# 
  3129  0F1A                     	;# 
  3130  0F1B                     	;# 
  3131  0F1C                     	;# 
  3132  0F1D                     	;# 
  3133  0F1E                     	;# 
  3134  0F1F                     	;# 
  3135  0F20                     	;# 
  3136  0F21                     	;# 
  3137  0F22                     	;# 
  3138  0F23                     	;# 
  3139  0F24                     	;# 
  3140  0F25                     	;# 
  3141  0F26                     	;# 
  3142  0F27                     	;# 
  3143  0F28                     	;# 
  3144  0F29                     	;# 
  3145  0F2A                     	;# 
  3146  0F2B                     	;# 
  3147  0F2C                     	;# 
  3148  0F2D                     	;# 
  3149  0F2E                     	;# 
  3150  0F2F                     	;# 
  3151  0F30                     	;# 
  3152  0F31                     	;# 
  3153  0F32                     	;# 
  3154  0F33                     	;# 
  3155  0F34                     	;# 
  3156  0F35                     	;# 
  3157  0F36                     	;# 
  3158  0F37                     	;# 
  3159  0FE4                     	;# 
  3160  0FE5                     	;# 
  3161  0FE6                     	;# 
  3162  0FE7                     	;# 
  3163  0FE8                     	;# 
  3164  0FE9                     	;# 
  3165  0FEA                     	;# 
  3166  0FEB                     	;# 
  3167  0FED                     	;# 
  3168  0FEE                     	;# 
  3169  0FEF                     	;# 
  3170  0000                     	;# 
  3171  0001                     	;# 
  3172  0002                     	;# 
  3173  0003                     	;# 
  3174  0004                     	;# 
  3175  0005                     	;# 
  3176  0006                     	;# 
  3177  0007                     	;# 
  3178  0008                     	;# 
  3179  0009                     	;# 
  3180  000A                     	;# 
  3181  000B                     	;# 
  3182  000C                     	;# 
  3183  000D                     	;# 
  3184  000E                     	;# 
  3185  0010                     	;# 
  3186  0011                     	;# 
  3187  0012                     	;# 
  3188  0013                     	;# 
  3189  0014                     	;# 
  3190  0015                     	;# 
  3191  0016                     	;# 
  3192  0016                     	;# 
  3193  0017                     	;# 
  3194  0018                     	;# 
  3195  0019                     	;# 
  3196  001A                     	;# 
  3197  001A                     	;# 
  3198  001B                     	;# 
  3199  001B                     	;# 
  3200  001C                     	;# 
  3201  001D                     	;# 
  3202  001E                     	;# 
  3203  001F                     	;# 
  3204  008C                     	;# 
  3205  008D                     	;# 
  3206  008E                     	;# 
  3207  0090                     	;# 
  3208  0091                     	;# 
  3209  0092                     	;# 
  3210  0093                     	;# 
  3211  0094                     	;# 
  3212  0095                     	;# 
  3213  0096                     	;# 
  3214  0098                     	;# 
  3215  0099                     	;# 
  3216  009A                     	;# 
  3217  009B                     	;# 
  3218  009B                     	;# 
  3219  009C                     	;# 
  3220  009D                     	;# 
  3221  009E                     	;# 
  3222  009F                     	;# 
  3223  010C                     	;# 
  3224  010D                     	;# 
  3225  010E                     	;# 
  3226  0111                     	;# 
  3227  0112                     	;# 
  3228  0113                     	;# 
  3229  0114                     	;# 
  3230  0115                     	;# 
  3231  0116                     	;# 
  3232  0117                     	;# 
  3233  0118                     	;# 
  3234  0119                     	;# 
  3235  011C                     	;# 
  3236  018C                     	;# 
  3237  018D                     	;# 
  3238  018E                     	;# 
  3239  0191                     	;# 
  3240  0191                     	;# 
  3241  0192                     	;# 
  3242  0193                     	;# 
  3243  0193                     	;# 
  3244  0194                     	;# 
  3245  0195                     	;# 
  3246  0196                     	;# 
  3247  0197                     	;# 
  3248  0199                     	;# 
  3249  0199                     	;# 
  3250  0199                     	;# 
  3251  019A                     	;# 
  3252  019A                     	;# 
  3253  019A                     	;# 
  3254  019B                     	;# 
  3255  019B                     	;# 
  3256  019B                     	;# 
  3257  019B                     	;# 
  3258  019B                     	;# 
  3259  019C                     	;# 
  3260  019C                     	;# 
  3261  019C                     	;# 
  3262  019D                     	;# 
  3263  019D                     	;# 
  3264  019D                     	;# 
  3265  019E                     	;# 
  3266  019E                     	;# 
  3267  019E                     	;# 
  3268  019F                     	;# 
  3269  019F                     	;# 
  3270  019F                     	;# 
  3271  019F                     	;# 
  3272  019F                     	;# 
  3273  020C                     	;# 
  3274  020D                     	;# 
  3275  020E                     	;# 
  3276  0211                     	;# 
  3277  0211                     	;# 
  3278  0212                     	;# 
  3279  0212                     	;# 
  3280  0213                     	;# 
  3281  0213                     	;# 
  3282  0214                     	;# 
  3283  0214                     	;# 
  3284  0215                     	;# 
  3285  0215                     	;# 
  3286  0215                     	;# 
  3287  0215                     	;# 
  3288  0216                     	;# 
  3289  0216                     	;# 
  3290  0217                     	;# 
  3291  0217                     	;# 
  3292  028C                     	;# 
  3293  028D                     	;# 
  3294  028E                     	;# 
  3295  0291                     	;# 
  3296  0291                     	;# 
  3297  0292                     	;# 
  3298  0293                     	;# 
  3299  0294                     	;# 
  3300  0298                     	;# 
  3301  0298                     	;# 
  3302  0299                     	;# 
  3303  029A                     	;# 
  3304  029B                     	;# 
  3305  029E                     	;# 
  3306  030C                     	;# 
  3307  030D                     	;# 
  3308  030E                     	;# 
  3309  038C                     	;# 
  3310  038D                     	;# 
  3311  038E                     	;# 
  3312  0391                     	;# 
  3313  0392                     	;# 
  3314  0393                     	;# 
  3315  0394                     	;# 
  3316  0395                     	;# 
  3317  0396                     	;# 
  3318  0397                     	;# 
  3319  0398                     	;# 
  3320  0399                     	;# 
  3321  040E                     	;# 
  3322  0413                     	;# 
  3323  0413                     	;# 
  3324  0414                     	;# 
  3325  0414                     	;# 
  3326  0415                     	;# 
  3327  0416                     	;# 
  3328  0417                     	;# 
  3329  0418                     	;# 
  3330  041A                     	;# 
  3331  041A                     	;# 
  3332  041B                     	;# 
  3333  041B                     	;# 
  3334  041C                     	;# 
  3335  041D                     	;# 
  3336  041E                     	;# 
  3337  041F                     	;# 
  3338  0493                     	;# 
  3339  0494                     	;# 
  3340  0495                     	;# 
  3341  0496                     	;# 
  3342  049A                     	;# 
  3343  049B                     	;# 
  3344  049C                     	;# 
  3345  049D                     	;# 
  3346  058C                     	;# 
  3347  058C                     	;# 
  3348  058D                     	;# 
  3349  058E                     	;# 
  3350  058E                     	;# 
  3351  058F                     	;# 
  3352  0590                     	;# 
  3353  0590                     	;# 
  3354  0591                     	;# 
  3355  0592                     	;# 
  3356  0592                     	;# 
  3357  0593                     	;# 
  3358  0594                     	;# 
  3359  0594                     	;# 
  3360  0595                     	;# 
  3361  0596                     	;# 
  3362  0596                     	;# 
  3363  0597                     	;# 
  3364  0598                     	;# 
  3365  0599                     	;# 
  3366  059A                     	;# 
  3367  059B                     	;# 
  3368  059B                     	;# 
  3369  059C                     	;# 
  3370  059D                     	;# 
  3371  060C                     	;# 
  3372  060C                     	;# 
  3373  060D                     	;# 
  3374  060E                     	;# 
  3375  060F                     	;# 
  3376  060F                     	;# 
  3377  0610                     	;# 
  3378  0611                     	;# 
  3379  0612                     	;# 
  3380  0613                     	;# 
  3381  0614                     	;# 
  3382  0617                     	;# 
  3383  0617                     	;# 
  3384  0618                     	;# 
  3385  0619                     	;# 
  3386  061A                     	;# 
  3387  061A                     	;# 
  3388  061B                     	;# 
  3389  061C                     	;# 
  3390  0691                     	;# 
  3391  0692                     	;# 
  3392  0693                     	;# 
  3393  0694                     	;# 
  3394  0695                     	;# 
  3395  0696                     	;# 
  3396  0697                     	;# 
  3397  0699                     	;# 
  3398  069A                     	;# 
  3399  0711                     	;# 
  3400  0712                     	;# 
  3401  0713                     	;# 
  3402  0714                     	;# 
  3403  0715                     	;# 
  3404  0718                     	;# 
  3405  0718                     	;# 
  3406  0719                     	;# 
  3407  071A                     	;# 
  3408  071A                     	;# 
  3409  071B                     	;# 
  3410  071C                     	;# 
  3411  071D                     	;# 
  3412  0791                     	;# 
  3413  0791                     	;# 
  3414  0792                     	;# 
  3415  0793                     	;# 
  3416  0793                     	;# 
  3417  0794                     	;# 
  3418  0795                     	;# 
  3419  0795                     	;# 
  3420  0796                     	;# 
  3421  0797                     	;# 
  3422  0797                     	;# 
  3423  0798                     	;# 
  3424  0799                     	;# 
  3425  079A                     	;# 
  3426  080C                     	;# 
  3427  080C                     	;# 
  3428  080D                     	;# 
  3429  080E                     	;# 
  3430  080E                     	;# 
  3431  080F                     	;# 
  3432  0810                     	;# 
  3433  0810                     	;# 
  3434  0811                     	;# 
  3435  0812                     	;# 
  3436  0812                     	;# 
  3437  0813                     	;# 
  3438  0814                     	;# 
  3439  0815                     	;# 
  3440  0816                     	;# 
  3441  0817                     	;# 
  3442  0818                     	;# 
  3443  0819                     	;# 
  3444  081A                     	;# 
  3445  081A                     	;# 
  3446  081B                     	;# 
  3447  081C                     	;# 
  3448  081C                     	;# 
  3449  081D                     	;# 
  3450  088C                     	;# 
  3451  088D                     	;# 
  3452  088E                     	;# 
  3453  088F                     	;# 
  3454  088F                     	;# 
  3455  0890                     	;# 
  3456  0891                     	;# 
  3457  0892                     	;# 
  3458  0893                     	;# 
  3459  0893                     	;# 
  3460  0894                     	;# 
  3461  0895                     	;# 
  3462  0896                     	;# 
  3463  0897                     	;# 
  3464  0897                     	;# 
  3465  0898                     	;# 
  3466  0899                     	;# 
  3467  0D8C                     	;# 
  3468  0D8C                     	;# 
  3469  0D8D                     	;# 
  3470  0D8E                     	;# 
  3471  0D8F                     	;# 
  3472  0D8F                     	;# 
  3473  0D90                     	;# 
  3474  0D91                     	;# 
  3475  0D92                     	;# 
  3476  0D92                     	;# 
  3477  0D93                     	;# 
  3478  0D94                     	;# 
  3479  0D95                     	;# 
  3480  0D95                     	;# 
  3481  0D96                     	;# 
  3482  0D97                     	;# 
  3483  0D98                     	;# 
  3484  0D99                     	;# 
  3485  0D9A                     	;# 
  3486  0D9B                     	;# 
  3487  0D9C                     	;# 
  3488  0D9D                     	;# 
  3489  0D9E                     	;# 
  3490  0D9E                     	;# 
  3491  0D9F                     	;# 
  3492  0DA0                     	;# 
  3493  0DA1                     	;# 
  3494  0DA1                     	;# 
  3495  0DA2                     	;# 
  3496  0DA3                     	;# 
  3497  0DA4                     	;# 
  3498  0DA4                     	;# 
  3499  0DA5                     	;# 
  3500  0DA6                     	;# 
  3501  0DA7                     	;# 
  3502  0DA7                     	;# 
  3503  0DA8                     	;# 
  3504  0DA9                     	;# 
  3505  0DAA                     	;# 
  3506  0DAB                     	;# 
  3507  0DAC                     	;# 
  3508  0DAD                     	;# 
  3509  0DAE                     	;# 
  3510  0DAF                     	;# 
  3511  0E0F                     	;# 
  3512  0E10                     	;# 
  3513  0E11                     	;# 
  3514  0E12                     	;# 
  3515  0E13                     	;# 
  3516  0E14                     	;# 
  3517  0E15                     	;# 
  3518  0E16                     	;# 
  3519  0E17                     	;# 
  3520  0E18                     	;# 
  3521  0E19                     	;# 
  3522  0E1A                     	;# 
  3523  0E1B                     	;# 
  3524  0E1C                     	;# 
  3525  0E1D                     	;# 
  3526  0E1E                     	;# 
  3527  0E1F                     	;# 
  3528  0E20                     	;# 
  3529  0E21                     	;# 
  3530  0E22                     	;# 
  3531  0E23                     	;# 
  3532  0E24                     	;# 
  3533  0E25                     	;# 
  3534  0E26                     	;# 
  3535  0E27                     	;# 
  3536  0E28                     	;# 
  3537  0E29                     	;# 
  3538  0E2A                     	;# 
  3539  0E2B                     	;# 
  3540  0E2C                     	;# 
  3541  0E2D                     	;# 
  3542  0E2E                     	;# 
  3543  0E90                     	;# 
  3544  0E91                     	;# 
  3545  0E92                     	;# 
  3546  0E94                     	;# 
  3547  0E95                     	;# 
  3548  0E9C                     	;# 
  3549  0E9D                     	;# 
  3550  0E9E                     	;# 
  3551  0E9F                     	;# 
  3552  0EA0                     	;# 
  3553  0EA1                     	;# 
  3554  0EA2                     	;# 
  3555  0EA3                     	;# 
  3556  0EA4                     	;# 
  3557  0EA5                     	;# 
  3558  0EA6                     	;# 
  3559  0EA7                     	;# 
  3560  0F0F                     	;# 
  3561  0F10                     	;# 
  3562  0F11                     	;# 
  3563  0F12                     	;# 
  3564  0F13                     	;# 
  3565  0F14                     	;# 
  3566  0F15                     	;# 
  3567  0F16                     	;# 
  3568  0F17                     	;# 
  3569  0F18                     	;# 
  3570  0F19                     	;# 
  3571  0F1A                     	;# 
  3572  0F1B                     	;# 
  3573  0F1C                     	;# 
  3574  0F1D                     	;# 
  3575  0F1E                     	;# 
  3576  0F1F                     	;# 
  3577  0F20                     	;# 
  3578  0F21                     	;# 
  3579  0F22                     	;# 
  3580  0F23                     	;# 
  3581  0F24                     	;# 
  3582  0F25                     	;# 
  3583  0F26                     	;# 
  3584  0F27                     	;# 
  3585  0F28                     	;# 
  3586  0F29                     	;# 
  3587  0F2A                     	;# 
  3588  0F2B                     	;# 
  3589  0F2C                     	;# 
  3590  0F2D                     	;# 
  3591  0F2E                     	;# 
  3592  0F2F                     	;# 
  3593  0F30                     	;# 
  3594  0F31                     	;# 
  3595  0F32                     	;# 
  3596  0F33                     	;# 
  3597  0F34                     	;# 
  3598  0F35                     	;# 
  3599  0F36                     	;# 
  3600  0F37                     	;# 
  3601  0FE4                     	;# 
  3602  0FE5                     	;# 
  3603  0FE6                     	;# 
  3604  0FE7                     	;# 
  3605  0FE8                     	;# 
  3606  0FE9                     	;# 
  3607  0FEA                     	;# 
  3608  0FEB                     	;# 
  3609  0FED                     	;# 
  3610  0FEE                     	;# 
  3611  0FEF                     	;# 
  3612                           
  3613 ;; Function _EUSART_DefaultFramingErrorHandler is unused but had its address taken
  3614  0000                     
  3615 ;; Function _EUSART_DefaultOverrunErrorHandler is unused but had its address taken
  3616  0000                     
  3617 ;; Function _EUSART_DefaultErrorHandler is unused but had its address taken
  3618  0000                     
  3619                           	psect	stringtext1
  3620  03AA                     __pstringtext1:
  3621  03AA                     _spi_configuration:
  3622  03AA  3400               	retlw	0
  3623  03AB  34C0               	retlw	192
  3624  03AC  3401               	retlw	1
  3625  03AD  3400               	retlw	0
  3626  03AE                     __end_of_spi_configuration:
  3627                           
  3628                           	psect	nvCOMMON
  3629  0075                     __pnvCOMMON:
  3630  0075                     _INT_InterruptHandler:
  3631  0075                     	ds	2
  3632                           
  3633                           	psect	nvBANK0
  3634  005A                     __pnvBANK0:
  3635  005A                     _EUSART_ErrorHandler:
  3636  005A                     	ds	2
  3637  005C                     _EUSART_OverrunErrorHandler:
  3638  005C                     	ds	2
  3639  005E                     _EUSART_FramingErrorHandler:
  3640  005E                     	ds	2
  3641  000B                     _INTCONbits	set	11
  3642  0010                     _PIR1bits	set	16
  3643  008E                     _TRISCbits	set	142
  3644  008D                     _TRISBbits	set	141
  3645  0095                     _OPTION_REGbits	set	149
  3646  008E                     _TRISC	set	142
  3647  008D                     _TRISB	set	141
  3648  008C                     _TRISA	set	140
  3649  0098                     _OSCTUNE	set	152
  3650  0099                     _OSCCON	set	153
  3651  010E                     _LATCbits	set	270
  3652  010E                     _LATC	set	270
  3653  010D                     _LATB	set	269
  3654  010C                     _LATA	set	268
  3655  0116                     _BORCON	set	278
  3656  018E                     _ANSELCbits	set	398
  3657  019A                     _TX1REG	set	410
  3658  0199                     _RC1REG	set	409
  3659  019D                     _RC1STAbits	set	413
  3660  019E                     _TX1STAbits	set	414
  3661  019C                     _SPBRGH	set	412
  3662  019B                     _SPBRGL	set	411
  3663  019E                     _TX1STA	set	414
  3664  019D                     _RC1STA	set	413
  3665  019F                     _BAUD1CON	set	415
  3666  018C                     _ANSELA	set	396
  3667  018D                     _ANSELB	set	397
  3668  018E                     _ANSELC	set	398
  3669  0211                     _SSP1BUF	set	529
  3670  0216                     _SSP1CON2	set	534
  3671  0215                     _SSP1CON1bits	set	533
  3672  0212                     _SSP1ADD	set	530
  3673  0215                     _SSP1CON1	set	533
  3674  0214                     _SSP1STAT	set	532
  3675  020E                     _WPUC	set	526
  3676  020C                     _WPUA	set	524
  3677  020D                     _WPUB	set	525
  3678  028E                     _ODCONC	set	654
  3679  028D                     _ODCONB	set	653
  3680  028C                     _ODCONA	set	652
  3681  030E                     _SLRCONC	set	782
  3682  030D                     _SLRCONB	set	781
  3683  030C                     _SLRCONA	set	780
  3684  038E                     _INLVLC	set	910
  3685  038D                     _INLVLB	set	909
  3686  038C                     _INLVLA	set	908
  3687  0E20                     _SSPCLKPPS	set	3616
  3688  0E21                     _SSPDATPPS	set	3617
  3689  0E24                     _RXPPS	set	3620
  3690  0E10                     _INTPPS	set	3600
  3691  0EA4                     _RC4PPS	set	3748
  3692  0E9D                     _RB5PPS	set	3741
  3693  0E9E                     _RB6PPS	set	3742
  3694                           
  3695                           	psect	cinit
  3696  0015                     start_initialization:	
  3697                           ; #config settings
  3698                           
  3699  0015                     __initialization:
  3700                           
  3701                           ; Clear objects allocated to COMMON
  3702  0015  01F7               	clrf	__pbssCOMMON& (0+127)
  3703  0016  01F8               	clrf	(__pbssCOMMON+1)& (0+127)
  3704  0017                     end_of_initialization:	
  3705                           ;End of C runtime variable initialization code
  3706                           
  3707  0017                     __end_of__initialization:
  3708  0017  107E               	bcf	int$flags,0	;clear compiler interrupt flag (level 1)
  3709  0018  0020               	movlb	0
  3710  0019  3181  2908         	ljmp	_main	;jump to C main() function
  3711                           
  3712                           	psect	bssCOMMON
  3713  0077                     __pbssCOMMON:
  3714  0077                     _PTX:
  3715  0077                     	ds	1
  3716  0078                     _eusartRxLastError:
  3717  0078                     	ds	1
  3718                           
  3719                           	psect	cstackCOMMON
  3720  0070                     __pcstackCOMMON:
  3721  0070                     ?_SPI_Initialize:
  3722  0070                     ?_PIN_MANAGER_Initialize:	
  3723                           ; 1 bytes @ 0x0
  3724                           
  3725  0070                     ?_OSCILLATOR_Initialize:	
  3726                           ; 1 bytes @ 0x0
  3727                           
  3728  0070                     ?_EXT_INT_Initialize:	
  3729                           ; 1 bytes @ 0x0
  3730                           
  3731  0070                     ?_EUSART_Initialize:	
  3732                           ; 1 bytes @ 0x0
  3733                           
  3734  0070                     ?_INT_ISR:	
  3735                           ; 1 bytes @ 0x0
  3736                           
  3737  0070                     ?_INT_CallBack:	
  3738                           ; 1 bytes @ 0x0
  3739                           
  3740  0070                     ?_ISR:	
  3741                           ; 1 bytes @ 0x0
  3742                           
  3743  0070                     ?_wl_module_init:	
  3744                           ; 1 bytes @ 0x0
  3745                           
  3746  0070                     ?_wl_module_tx_config:	
  3747                           ; 1 bytes @ 0x0
  3748                           
  3749  0070                     ?_wl_module_set_TADDR:	
  3750                           ; 1 bytes @ 0x0
  3751                           
  3752  0070                     ?_SYSTEM_Initialize:	
  3753                           ; 1 bytes @ 0x0
  3754                           
  3755  0070                     ?_SPI_Open:	
  3756                           ; 1 bytes @ 0x0
  3757                           
  3758  0070                     ?_SPI_ExchangeByte:	
  3759                           ; 1 bytes @ 0x0
  3760                           
  3761  0070                     ?_INTERRUPT_InterruptManager:	
  3762                           ; 1 bytes @ 0x0
  3763                           
  3764  0070                     ?_INT_DefaultInterruptHandler:	
  3765                           ; 1 bytes @ 0x0
  3766                           
  3767  0070                     ??_INT_DefaultInterruptHandler:	
  3768                           ; 1 bytes @ 0x0
  3769                           
  3770  0070                     ?_main:	
  3771                           ; 1 bytes @ 0x0
  3772                           
  3773  0070                     ?i1_SPI_ExchangeByte:	
  3774                           ; 1 bytes @ 0x0
  3775                           
  3776  0070                     ??i1_SPI_ExchangeByte:	
  3777                           ; 1 bytes @ 0x0
  3778                           
  3779  0070                     i1SPI_ExchangeByte@data:	
  3780                           ; 1 bytes @ 0x0
  3781                           
  3782                           
  3783                           ; 1 bytes @ 0x0
  3784  0070                     	ds	1
  3785  0071                     ?i1_wl_module_config_register:
  3786  0071                     i1wl_module_config_register@value:	
  3787                           ; 1 bytes @ 0x1
  3788                           
  3789                           
  3790                           ; 1 bytes @ 0x1
  3791  0071                     	ds	1
  3792  0072                     ??i1_wl_module_config_register:
  3793  0072                     i1wl_module_config_register@reg:	
  3794                           ; 1 bytes @ 0x2
  3795                           
  3796                           
  3797                           ; 1 bytes @ 0x2
  3798  0072                     	ds	1
  3799  0073                     ??_ISR:
  3800                           
  3801                           ; 1 bytes @ 0x3
  3802  0073                     	ds	1
  3803  0074                     ISR@status:
  3804                           
  3805                           ; 1 bytes @ 0x4
  3806  0074                     	ds	1
  3807  0075                     ??_SPI_Initialize:
  3808  0075                     ??_PIN_MANAGER_Initialize:	
  3809                           ; 1 bytes @ 0x5
  3810                           
  3811  0075                     ??_OSCILLATOR_Initialize:	
  3812                           ; 1 bytes @ 0x5
  3813                           
  3814  0075                     ??_EXT_INT_Initialize:	
  3815                           ; 1 bytes @ 0x5
  3816                           
  3817  0075                     ??_EUSART_Initialize:	
  3818                           ; 1 bytes @ 0x5
  3819                           
  3820  0075                     ??_EUSART_SetFramingErrorHandler:	
  3821                           ; 1 bytes @ 0x5
  3822                           
  3823  0075                     ??_EUSART_SetOverrunErrorHandler:	
  3824                           ; 1 bytes @ 0x5
  3825                           
  3826  0075                     ??_EUSART_SetErrorHandler:	
  3827                           ; 1 bytes @ 0x5
  3828                           
  3829  0075                     ??_INT_ISR:	
  3830                           ; 1 bytes @ 0x5
  3831                           
  3832  0075                     ??_INT_CallBack:	
  3833                           ; 1 bytes @ 0x5
  3834                           
  3835  0075                     ??_wl_module_init:	
  3836                           ; 1 bytes @ 0x5
  3837                           
  3838  0075                     ??_wl_module_config_register:	
  3839                           ; 1 bytes @ 0x5
  3840                           
  3841  0075                     ??_SYSTEM_Initialize:	
  3842                           ; 1 bytes @ 0x5
  3843                           
  3844  0075                     ??_SPI_ExchangeByte:	
  3845                           ; 1 bytes @ 0x5
  3846                           
  3847  0075                     ??_SPI_WriteBlock:	
  3848                           ; 1 bytes @ 0x5
  3849                           
  3850  0075                     ??_INTERRUPT_InterruptManager:	
  3851                           ; 1 bytes @ 0x5
  3852                           
  3853  0075                     ??_INT_SetInterruptHandler:	
  3854                           ; 1 bytes @ 0x5
  3855                           
  3856                           
  3857                           	psect	cstackBANK0
  3858  0020                     __pcstackBANK0:	
  3859                           ; 1 bytes @ 0x5
  3860                           
  3861  0020                     ?_EUSART_SetFramingErrorHandler:
  3862  0020                     ?_EUSART_SetOverrunErrorHandler:	
  3863                           ; 1 bytes @ 0x0
  3864                           
  3865  0020                     ?_EUSART_SetErrorHandler:	
  3866                           ; 1 bytes @ 0x0
  3867                           
  3868  0020                     ??_SPI_Open:	
  3869                           ; 1 bytes @ 0x0
  3870                           
  3871  0020                     ?_INT_SetInterruptHandler:	
  3872                           ; 1 bytes @ 0x0
  3873                           
  3874  0020                     SPI_ExchangeByte@data:	
  3875                           ; 1 bytes @ 0x0
  3876                           
  3877  0020                     EUSART_SetFramingErrorHandler@interruptHandler:	
  3878                           ; 1 bytes @ 0x0
  3879                           
  3880  0020                     EUSART_SetOverrunErrorHandler@interruptHandler:	
  3881                           ; 2 bytes @ 0x0
  3882                           
  3883  0020                     EUSART_SetErrorHandler@interruptHandler:	
  3884                           ; 2 bytes @ 0x0
  3885                           
  3886  0020                     INT_SetInterruptHandler@InterruptHandler:	
  3887                           ; 2 bytes @ 0x0
  3888                           
  3889                           
  3890                           ; 2 bytes @ 0x0
  3891  0020                     	ds	1
  3892  0021                     ?_wl_module_config_register:
  3893  0021                     ?_SPI_WriteBlock:	
  3894                           ; 1 bytes @ 0x1
  3895                           
  3896  0021                     wl_module_config_register@value:	
  3897                           ; 1 bytes @ 0x1
  3898                           
  3899  0021                     SPI_WriteBlock@block:	
  3900                           ; 1 bytes @ 0x1
  3901                           
  3902                           
  3903                           ; 2 bytes @ 0x1
  3904  0021                     	ds	1
  3905  0022                     wl_module_config_register@reg:
  3906                           
  3907                           ; 1 bytes @ 0x2
  3908  0022                     	ds	1
  3909  0023                     SPI_Open@spiUniqueConfiguration:
  3910  0023                     SPI_WriteBlock@blockSize:	
  3911                           ; 1 bytes @ 0x3
  3912                           
  3913                           
  3914                           ; 2 bytes @ 0x3
  3915  0023                     	ds	2
  3916  0025                     SPI_WriteBlock@data:
  3917                           
  3918                           ; 2 bytes @ 0x5
  3919  0025                     	ds	2
  3920  0027                     ?_wl_module_send:
  3921  0027                     ?_wl_module_write_register:	
  3922                           ; 1 bytes @ 0x7
  3923                           
  3924  0027                     wl_module_send@len:	
  3925                           ; 1 bytes @ 0x7
  3926                           
  3927  0027                     wl_module_write_register@value:	
  3928                           ; 1 bytes @ 0x7
  3929                           
  3930                           
  3931                           ; 2 bytes @ 0x7
  3932  0027                     	ds	1
  3933  0028                     ??_wl_module_send:
  3934                           
  3935                           ; 1 bytes @ 0x8
  3936  0028                     	ds	1
  3937  0029                     wl_module_write_register@len:
  3938                           
  3939                           ; 1 bytes @ 0x9
  3940  0029                     	ds	1
  3941  002A                     ??_wl_module_write_register:
  3942  002A                     wl_module_send@value:	
  3943                           ; 1 bytes @ 0xA
  3944                           
  3945                           
  3946                           ; 1 bytes @ 0xA
  3947  002A                     	ds	2
  3948  002C                     wl_module_write_register@reg:
  3949                           
  3950                           ; 1 bytes @ 0xC
  3951  002C                     	ds	1
  3952  002D                     ?_wl_module_set_RADDR:
  3953  002D                     ??_wl_module_set_TADDR:	
  3954                           ; 1 bytes @ 0xD
  3955                           
  3956  002D                     wl_module_set_RADDR@adr:	
  3957                           ; 1 bytes @ 0xD
  3958                           
  3959                           
  3960                           ; 2 bytes @ 0xD
  3961  002D                     	ds	1
  3962  002E                     wl_module_set_TADDR@adr:
  3963                           
  3964                           ; 1 bytes @ 0xE
  3965  002E                     	ds	1
  3966  002F                     ??_wl_module_set_RADDR:
  3967                           
  3968                           ; 1 bytes @ 0xF
  3969  002F                     	ds	1
  3970  0030                     ??_wl_module_tx_config:
  3971                           
  3972                           ; 1 bytes @ 0x10
  3973  0030                     	ds	2
  3974  0032                     wl_module_tx_config@tx_nr:
  3975                           
  3976                           ; 1 bytes @ 0x12
  3977  0032                     	ds	1
  3978  0033                     wl_module_tx_config@tx_addr:
  3979                           
  3980                           ; 5 bytes @ 0x13
  3981  0033                     	ds	5
  3982  0038                     ??_main:
  3983                           
  3984                           ; 1 bytes @ 0x18
  3985  0038                     	ds	2
  3986  003A                     main@payload:
  3987                           
  3988                           ; 32 bytes @ 0x1A
  3989  003A                     	ds	32
  3990                           
  3991                           	psect	maintext
  3992  0108                     __pmaintext:	
  3993 ;;
  3994 ;;Main: autosize = 0, tempsize = 2, incstack = 0, save=0
  3995 ;;
  3996 ;; *************** function _main *****************
  3997 ;; Defined at:
  3998 ;;		line 51 in file "main.c"
  3999 ;; Parameters:    Size  Location     Type
  4000 ;;		None
  4001 ;; Auto vars:     Size  Location     Type
  4002 ;;  payload        32   26[BANK0 ] unsigned char [32]
  4003 ;;  seconds         2    0        int 
  4004 ;; Return value:  Size  Location     Type
  4005 ;;                  1    wreg      void 
  4006 ;; Registers used:
  4007 ;;		wreg, fsr0l, fsr0h, fsr1l, fsr1h, status,2, status,0, pclath, cstack
  4008 ;; Tracked objects:
  4009 ;;		On entry : B1F/0
  4010 ;;		On exit  : 0/0
  4011 ;;		Unchanged: 0/0
  4012 ;; Data sizes:     COMMON   BANK0   BANK1   BANK2   BANK3   BANK4   BANK5   BANK6   BANK7   BANK8   BANK9  BANK10  BANK1
      +1  BANK12
  4013 ;;      Params:         0       0       0       0       0       0       0       0       0       0       0       0       
      +0       0
  4014 ;;      Locals:         0      34       0       0       0       0       0       0       0       0       0       0       
      +0       0
  4015 ;;      Temps:          0       2       0       0       0       0       0       0       0       0       0       0       
      +0       0
  4016 ;;      Totals:         0      36       0       0       0       0       0       0       0       0       0       0       
      +0       0
  4017 ;;Total ram usage:       36 bytes
  4018 ;; Hardware stack levels required when called:   11
  4019 ;; This function calls:
  4020 ;;		_INT_SetInterruptHandler
  4021 ;;		_SPI_Open
  4022 ;;		_SYSTEM_Initialize
  4023 ;;		_wl_module_init
  4024 ;;		_wl_module_send
  4025 ;;		_wl_module_tx_config
  4026 ;; This function is called by:
  4027 ;;		Startup code after reset
  4028 ;; This function uses a non-reentrant model
  4029 ;;
  4030                           
  4031                           
  4032                           ;psect for function _main
  4033  0108                     _main:
  4034  0108                     l2280:	
  4035                           ;incstack = 0
  4036                           ; Regs used in _main: [wreg-fsr1h+status,2+status,0+pclath+cstack]
  4037                           
  4038                           
  4039                           ;main.c: 54:     SYSTEM_Initialize();
  4040  0108  3183  231A  3181   	fcall	_SYSTEM_Initialize
  4041  010B                     l2282:
  4042                           
  4043                           ;main.c: 60:     (INTCONbits.GIE = 1);
  4044  010B  178B               	bsf	11,7	;volatile
  4045  010C                     l2284:
  4046                           
  4047                           ;main.c: 63:     (INTCONbits.PEIE = 1);
  4048  010C  170B               	bsf	11,6	;volatile
  4049  010D                     l2286:
  4050  010D                     l2288:
  4051                           
  4052                           ;main.c: 72:     SPI_Open(SPI_DEFAULT);
  4053  010D  3000               	movlw	0
  4054  010E  3181  2175  3181   	fcall	_SPI_Open
  4055  0111                     l2290:
  4056                           
  4057                           ;main.c: 74:     INT_SetInterruptHandler(ISR);
  4058  0111  3045               	movlw	low _ISR
  4059  0112  0020               	movlb	0	; select bank0
  4060  0113  00A0               	movwf	INT_SetInterruptHandler@InterruptHandler
  4061  0114  3002               	movlw	high _ISR
  4062  0115  00A1               	movwf	INT_SetInterruptHandler@InterruptHandler+1
  4063  0116  3183  238D  3181   	fcall	_INT_SetInterruptHandler
  4064  0119                     l2292:
  4065                           
  4066                           ;main.c: 76:     unsigned char payload[32];;main.c: 78:     wl_module_init();
  4067  0119  3183  237D  3181   	fcall	_wl_module_init
  4068  011C                     l2294:
  4069                           
  4070                           ;main.c: 79:     _delay((unsigned long)((50)*(16000000/4000.0)));
  4071  011C  3002               	movlw	2
  4072  011D  0020               	movlb	0	; select bank0
  4073  011E  00B9               	movwf	??_main+1
  4074  011F  3004               	movlw	4
  4075  0120  00B8               	movwf	??_main
  4076  0121  30BA               	movlw	186
  4077  0122                     u677:
  4078  0122  0B89               	decfsz	9,f
  4079  0123  2922               	goto	u677
  4080  0124  0BB8               	decfsz	??_main,f
  4081  0125  2922               	goto	u677
  4082  0126  0BB9               	decfsz	??_main+1,f
  4083  0127  2922               	goto	u677
  4084  0128  0000               	nop
  4085  0129                     l2296:
  4086                           
  4087                           ;main.c: 80:     wl_module_tx_config(0);
  4088  0129  3000               	movlw	0
  4089  012A  3180  201B  3181   	fcall	_wl_module_tx_config
  4090  012D                     l2298:
  4091                           
  4092                           ;main.c: 81:     _delay((unsigned long)((50)*(16000000/4000.0)));
  4093  012D  3002               	movlw	2
  4094  012E  0020               	movlb	0	; select bank0
  4095  012F  00B9               	movwf	??_main+1
  4096  0130  3004               	movlw	4
  4097  0131  00B8               	movwf	??_main
  4098  0132  30BA               	movlw	186
  4099  0133                     u687:
  4100  0133  0B89               	decfsz	9,f
  4101  0134  2933               	goto	u687
  4102  0135  0BB8               	decfsz	??_main,f
  4103  0136  2933               	goto	u687
  4104  0137  0BB9               	decfsz	??_main+1,f
  4105  0138  2933               	goto	u687
  4106  0139  0000               	nop
  4107  013A                     l2300:
  4108                           
  4109                           ;main.c: 83:     payload[5]= 99;
  4110  013A  3063               	movlw	99
  4111  013B  0020               	movlb	0	; select bank0
  4112  013C  00B8               	movwf	??_main
  4113  013D  0838               	movf	??_main,w
  4114  013E  00BF               	movwf	main@payload+5
  4115  013F                     l2302:
  4116                           
  4117                           ;main.c: 84:     payload[6]= 66;
  4118  013F  3042               	movlw	66
  4119  0140  00B8               	movwf	??_main
  4120  0141  0838               	movf	??_main,w
  4121  0142  00C0               	movwf	main@payload+6
  4122  0143                     l2304:
  4123                           
  4124                           ;main.c: 88:     {;main.c: 90:         wl_module_send(payload, 32);
  4125  0143  3020               	movlw	32
  4126  0144  0020               	movlb	0	; select bank0
  4127  0145  00B8               	movwf	??_main
  4128  0146  0838               	movf	??_main,w
  4129  0147  00A7               	movwf	wl_module_send@len
  4130  0148  303A               	movlw	(low (main@payload| 0))& (0+255)
  4131  0149  3181  21CE  3181   	fcall	_wl_module_send
  4132  014C                     l2306:
  4133                           
  4134                           ;main.c: 91:         _delay((unsigned long)((500)*(16000000/4000.0)));
  4135  014C  300B               	movlw	11
  4136  014D  0020               	movlb	0	; select bank0
  4137  014E  00B9               	movwf	??_main+1
  4138  014F  3026               	movlw	38
  4139  0150  00B8               	movwf	??_main
  4140  0151  305D               	movlw	93
  4141  0152                     u697:
  4142  0152  0B89               	decfsz	9,f
  4143  0153  2952               	goto	u697
  4144  0154  0BB8               	decfsz	??_main,f
  4145  0155  2952               	goto	u697
  4146  0156  0BB9               	decfsz	??_main+1,f
  4147  0157  2952               	goto	u697
  4148  0158  3200               	nop2
  4149  0159                     l2308:
  4150  0159  1003               	clrc
  4151  015A  0022               	movlb	2	; select bank2
  4152  015B  1C0E               	btfss	14,0	;volatile
  4153  015C  1403               	setc
  4154  015D  1803               	btfsc	3,0
  4155  015E  2960               	goto	u571
  4156  015F  2963               	goto	u570
  4157  0160                     u571:
  4158  0160  0022               	movlb	2	; select bank2
  4159  0161  140E               	bsf	14,0	;volatile
  4160  0162  2965               	goto	u584
  4161  0163                     u570:
  4162  0163  0022               	movlb	2	; select bank2
  4163  0164  100E               	bcf	14,0	;volatile
  4164  0165                     u584:
  4165  0165                     l2310:
  4166                           
  4167                           ;main.c: 97:         _delay((unsigned long)((500)*(16000000/4000.0)));
  4168  0165  300B               	movlw	11
  4169  0166  0020               	movlb	0	; select bank0
  4170  0167  00B9               	movwf	??_main+1
  4171  0168  3026               	movlw	38
  4172  0169  00B8               	movwf	??_main
  4173  016A  305D               	movlw	93
  4174  016B                     u707:
  4175  016B  0B89               	decfsz	9,f
  4176  016C  296B               	goto	u707
  4177  016D  0BB8               	decfsz	??_main,f
  4178  016E  296B               	goto	u707
  4179  016F  0BB9               	decfsz	??_main+1,f
  4180  0170  296B               	goto	u707
  4181  0171  3200               	nop2
  4182  0172  2943               	goto	l2304
  4183  0173  3180  2813         	ljmp	start
  4184  0175                     __end_of_main:
  4185                           
  4186                           	psect	text1
  4187  001B                     __ptext1:	
  4188 ;; *************** function _wl_module_tx_config *****************
  4189 ;; Defined at:
  4190 ;;		line 130 in file "wl_module.c"
  4191 ;; Parameters:    Size  Location     Type
  4192 ;;  tx_nr           1    wreg     unsigned char 
  4193 ;; Auto vars:     Size  Location     Type
  4194 ;;  tx_nr           1   18[BANK0 ] unsigned char 
  4195 ;;  tx_addr         5   19[BANK0 ] unsigned char [5]
  4196 ;; Return value:  Size  Location     Type
  4197 ;;                  1    wreg      void 
  4198 ;; Registers used:
  4199 ;;		wreg, fsr0l, fsr0h, fsr1l, fsr1h, status,2, status,0, pclath, cstack
  4200 ;; Tracked objects:
  4201 ;;		On entry : 0/0
  4202 ;;		On exit  : 0/0
  4203 ;;		Unchanged: 0/0
  4204 ;; Data sizes:     COMMON   BANK0   BANK1   BANK2   BANK3   BANK4   BANK5   BANK6   BANK7   BANK8   BANK9  BANK10  BANK1
      +1  BANK12
  4205 ;;      Params:         0       0       0       0       0       0       0       0       0       0       0       0       
      +0       0
  4206 ;;      Locals:         0       6       0       0       0       0       0       0       0       0       0       0       
      +0       0
  4207 ;;      Temps:          0       2       0       0       0       0       0       0       0       0       0       0       
      +0       0
  4208 ;;      Totals:         0       8       0       0       0       0       0       0       0       0       0       0       
      +0       0
  4209 ;;Total ram usage:        8 bytes
  4210 ;; Hardware stack levels used:    1
  4211 ;; Hardware stack levels required when called:   10
  4212 ;; This function calls:
  4213 ;;		_wl_module_config_register
  4214 ;;		_wl_module_set_RADDR
  4215 ;;		_wl_module_set_TADDR
  4216 ;; This function is called by:
  4217 ;;		_main
  4218 ;; This function uses a non-reentrant model
  4219 ;;
  4220                           
  4221                           
  4222                           ;psect for function _wl_module_tx_config
  4223  001B                     _wl_module_tx_config:
  4224                           
  4225                           ;incstack = 0
  4226                           ; Regs used in _wl_module_tx_config: [wreg-fsr1h+status,2+status,0+pclath+cstack]
  4227                           ;wl_module_tx_config@tx_nr stored from wreg
  4228  001B  0020               	movlb	0	; select bank0
  4229  001C  00B2               	movwf	wl_module_tx_config@tx_nr
  4230  001D                     l2184:
  4231                           
  4232                           ;wl_module.c: 130: extern void wl_module_tx_config(unsigned char tx_nr);wl_module.c: 131
      +                          : {;wl_module.c: 132:  unsigned char tx_addr[5];;wl_module.c: 135:     wl_module_config_
      +                          register(0x05,2);
  4233  001D  3002               	movlw	2
  4234  001E  00B0               	movwf	??_wl_module_tx_config
  4235  001F  0830               	movf	??_wl_module_tx_config,w
  4236  0020  00A1               	movwf	wl_module_config_register@value
  4237  0021  3005               	movlw	5
  4238  0022  3182  22F5  3180   	fcall	_wl_module_config_register
  4239                           
  4240                           ;wl_module.c: 137:  wl_module_config_register(0x06,(0x06 | 0x00));
  4241  0025  3006               	movlw	6
  4242  0026  0020               	movlb	0	; select bank0
  4243  0027  00B0               	movwf	??_wl_module_tx_config
  4244  0028  0830               	movf	??_wl_module_tx_config,w
  4245  0029  00A1               	movwf	wl_module_config_register@value
  4246  002A  3006               	movlw	6
  4247  002B  3182  22F5  3180   	fcall	_wl_module_config_register
  4248                           
  4249                           ;wl_module.c: 139:  wl_module_config_register(0x00, ( (1<<6) | (1<<3) | (1<<2) ));
  4250  002E  304C               	movlw	76
  4251  002F  0020               	movlb	0	; select bank0
  4252  0030  00B0               	movwf	??_wl_module_tx_config
  4253  0031  0830               	movf	??_wl_module_tx_config,w
  4254  0032  00A1               	movwf	wl_module_config_register@value
  4255  0033  3000               	movlw	0
  4256  0034  3182  22F5  3180   	fcall	_wl_module_config_register
  4257                           
  4258                           ;wl_module.c: 143:     wl_module_config_register(0x01 , 0x00);
  4259  0037  0020               	movlb	0	; select bank0
  4260  0038  01A1               	clrf	wl_module_config_register@value
  4261  0039  3001               	movlw	1
  4262  003A  3182  22F5  3180   	fcall	_wl_module_config_register
  4263                           
  4264                           ;wl_module.c: 146:  wl_module_config_register(0x04,(0x20 | 0x09));
  4265  003D  3029               	movlw	41
  4266  003E  0020               	movlb	0	; select bank0
  4267  003F  00B0               	movwf	??_wl_module_tx_config
  4268  0040  0830               	movf	??_wl_module_tx_config,w
  4269  0041  00A1               	movwf	wl_module_config_register@value
  4270  0042  3004               	movlw	4
  4271  0043  3182  22F5  3180   	fcall	_wl_module_config_register
  4272                           
  4273                           ;wl_module.c: 149:    switch(tx_nr)
  4274  0046  28E0               	goto	l2234
  4275  0047                     l2186:
  4276                           
  4277                           ;wl_module.c: 152:      tx_addr[0] = tx_addr[1] = tx_addr[2] =0x32;
  4278  0047  3001               	movlw	1
  4279  0048  3E33               	addlw	(low (wl_module_tx_config@tx_addr| 0))& (0+255)
  4280  0049  0086               	movwf	6
  4281  004A  0187               	clrf	7
  4282  004B  3002               	movlw	2
  4283  004C  3E33               	addlw	(low (wl_module_tx_config@tx_addr| 0))& (0+255)
  4284  004D  0084               	movwf	4
  4285  004E  0185               	clrf	5
  4286  004F  3032               	movlw	50
  4287  0050  3F80               	movwi [0]fsr0
  4288  0051  3FC0               	movwi [0]fsr1
  4289  0052  00B0               	movwf	??_wl_module_tx_config
  4290  0053  0830               	movf	??_wl_module_tx_config,w
  4291  0054  00B3               	movwf	wl_module_tx_config@tx_addr
  4292  0055                     l2188:
  4293                           
  4294                           ;wl_module.c: 153:                     tx_addr[3] = tx_addr[4] = 0x32;
  4295  0055  3004               	movlw	4
  4296  0056  3E33               	addlw	(low (wl_module_tx_config@tx_addr| 0))& (0+255)
  4297  0057  0086               	movwf	6
  4298  0058  0187               	clrf	7
  4299  0059  3032               	movlw	50
  4300  005A  3FC0               	movwi [0]fsr1
  4301  005B  00B0               	movwf	??_wl_module_tx_config
  4302  005C  0830               	movf	??_wl_module_tx_config,w
  4303  005D  00B6               	movwf	wl_module_tx_config@tx_addr+3
  4304  005E                     l2190:
  4305                           
  4306                           ;wl_module.c: 154:      wl_module_set_TADDR(tx_addr);
  4307  005E  3033               	movlw	(low (wl_module_tx_config@tx_addr| 0))& (0+255)
  4308  005F  3183  233A  3180   	fcall	_wl_module_set_TADDR
  4309  0062                     l2192:
  4310                           
  4311                           ;wl_module.c: 155:      wl_module_set_RADDR(tx_addr);
  4312  0062  3033               	movlw	low wl_module_tx_config@tx_addr
  4313  0063  0020               	movlb	0	; select bank0
  4314  0064  00AD               	movwf	wl_module_set_RADDR@adr
  4315  0065  3000               	movlw	high wl_module_tx_config@tx_addr
  4316  0066  00AE               	movwf	wl_module_set_RADDR@adr+1
  4317  0067  3183  2308  3180   	fcall	_wl_module_set_RADDR
  4318                           
  4319                           ;wl_module.c: 156:      break;
  4320  006A  28FD               	goto	l2236
  4321  006B                     l2194:
  4322                           
  4323                           ;wl_module.c: 158:      tx_addr[0] = tx_addr[1] = tx_addr[2] = tx_addr[3] = tx_addr[4] =
      +                           0x30;
  4324  006B  3001               	movlw	1
  4325  006C  3E33               	addlw	(low (wl_module_tx_config@tx_addr| 0))& (0+255)
  4326  006D  0086               	movwf	6
  4327  006E  0187               	clrf	7
  4328  006F  3002               	movlw	2
  4329  0070  3E33               	addlw	(low (wl_module_tx_config@tx_addr| 0))& (0+255)
  4330  0071  0084               	movwf	4
  4331  0072  0185               	clrf	5
  4332  0073  3030               	movlw	48
  4333  0074  00B7               	movwf	wl_module_tx_config@tx_addr+4
  4334  0075  00B6               	movwf	wl_module_tx_config@tx_addr+3
  4335  0076  3F80               	movwi [0]fsr0
  4336  0077  3FC0               	movwi [0]fsr1
  4337  0078  00B0               	movwf	??_wl_module_tx_config
  4338  0079  0830               	movf	??_wl_module_tx_config,w
  4339  007A  00B3               	movwf	wl_module_tx_config@tx_addr
  4340  007B                     l2196:
  4341                           
  4342                           ;wl_module.c: 159:      wl_module_set_TADDR(tx_addr);
  4343  007B  3033               	movlw	(low (wl_module_tx_config@tx_addr| 0))& (0+255)
  4344  007C  3183  233A  3180   	fcall	_wl_module_set_TADDR
  4345  007F  2862               	goto	l2192
  4346  0080                     l2200:
  4347                           
  4348                           ;wl_module.c: 163:      tx_addr[1] = tx_addr[2] = tx_addr[3] = tx_addr[4] = 0x30;
  4349  0080  3002               	movlw	2
  4350  0081  3E33               	addlw	(low (wl_module_tx_config@tx_addr| 0))& (0+255)
  4351  0082  0086               	movwf	6
  4352  0083  0187               	clrf	7
  4353  0084  3003               	movlw	3
  4354  0085  3E33               	addlw	(low (wl_module_tx_config@tx_addr| 0))& (0+255)
  4355  0086  0084               	movwf	4
  4356  0087  0185               	clrf	5
  4357  0088  3030               	movlw	48
  4358  0089  00B7               	movwf	wl_module_tx_config@tx_addr+4
  4359  008A  3F80               	movwi [0]fsr0
  4360  008B  3FC0               	movwi [0]fsr1
  4361  008C  00B0               	movwf	??_wl_module_tx_config
  4362  008D  0830               	movf	??_wl_module_tx_config,w
  4363  008E  00B4               	movwf	wl_module_tx_config@tx_addr+1
  4364  008F                     l2202:
  4365                           
  4366                           ;wl_module.c: 164:      tx_addr[0] = 0xC3;
  4367  008F  30C3               	movlw	195
  4368  0090  00B0               	movwf	??_wl_module_tx_config
  4369  0091  0830               	movf	??_wl_module_tx_config,w
  4370  0092  00B3               	movwf	wl_module_tx_config@tx_addr
  4371  0093                     l2204:
  4372                           
  4373                           ;wl_module.c: 165:      wl_module_set_TADDR(tx_addr);
  4374  0093  3033               	movlw	(low (wl_module_tx_config@tx_addr| 0))& (0+255)
  4375  0094  3183  233A  3180   	fcall	_wl_module_set_TADDR
  4376  0097  2862               	goto	l2192
  4377  0098                     l2208:
  4378                           
  4379                           ;wl_module.c: 169:      tx_addr[1] = tx_addr[2] = tx_addr[3] = tx_addr[4] = 0x30;
  4380  0098  3002               	movlw	2
  4381  0099  3E33               	addlw	(low (wl_module_tx_config@tx_addr| 0))& (0+255)
  4382  009A  0086               	movwf	6
  4383  009B  0187               	clrf	7
  4384  009C  3003               	movlw	3
  4385  009D  3E33               	addlw	(low (wl_module_tx_config@tx_addr| 0))& (0+255)
  4386  009E  0084               	movwf	4
  4387  009F  0185               	clrf	5
  4388  00A0  3030               	movlw	48
  4389  00A1  00B7               	movwf	wl_module_tx_config@tx_addr+4
  4390  00A2  3F80               	movwi [0]fsr0
  4391  00A3  3FC0               	movwi [0]fsr1
  4392  00A4  00B0               	movwf	??_wl_module_tx_config
  4393  00A5  0830               	movf	??_wl_module_tx_config,w
  4394  00A6  00B4               	movwf	wl_module_tx_config@tx_addr+1
  4395  00A7                     l2210:
  4396                           
  4397                           ;wl_module.c: 170:      tx_addr[0] = 0xC4;
  4398  00A7  30C4               	movlw	196
  4399  00A8  00B0               	movwf	??_wl_module_tx_config
  4400  00A9  0830               	movf	??_wl_module_tx_config,w
  4401  00AA  00B3               	movwf	wl_module_tx_config@tx_addr
  4402  00AB                     l2212:
  4403                           
  4404                           ;wl_module.c: 171:      wl_module_set_TADDR(tx_addr);
  4405  00AB  3033               	movlw	(low (wl_module_tx_config@tx_addr| 0))& (0+255)
  4406  00AC  3183  233A  3180   	fcall	_wl_module_set_TADDR
  4407  00AF  2862               	goto	l2192
  4408  00B0                     l2216:
  4409                           
  4410                           ;wl_module.c: 175:      tx_addr[1] = tx_addr[2] = tx_addr[3] = tx_addr[4] = 0x30;
  4411  00B0  3002               	movlw	2
  4412  00B1  3E33               	addlw	(low (wl_module_tx_config@tx_addr| 0))& (0+255)
  4413  00B2  0086               	movwf	6
  4414  00B3  0187               	clrf	7
  4415  00B4  3003               	movlw	3
  4416  00B5  3E33               	addlw	(low (wl_module_tx_config@tx_addr| 0))& (0+255)
  4417  00B6  0084               	movwf	4
  4418  00B7  0185               	clrf	5
  4419  00B8  3030               	movlw	48
  4420  00B9  00B7               	movwf	wl_module_tx_config@tx_addr+4
  4421  00BA  3F80               	movwi [0]fsr0
  4422  00BB  3FC0               	movwi [0]fsr1
  4423  00BC  00B0               	movwf	??_wl_module_tx_config
  4424  00BD  0830               	movf	??_wl_module_tx_config,w
  4425  00BE  00B4               	movwf	wl_module_tx_config@tx_addr+1
  4426  00BF                     l2218:
  4427                           
  4428                           ;wl_module.c: 176:      tx_addr[0] = 0xC5;
  4429  00BF  30C5               	movlw	197
  4430  00C0  00B0               	movwf	??_wl_module_tx_config
  4431  00C1  0830               	movf	??_wl_module_tx_config,w
  4432  00C2  00B3               	movwf	wl_module_tx_config@tx_addr
  4433  00C3                     l2220:
  4434                           
  4435                           ;wl_module.c: 177:      wl_module_set_TADDR(tx_addr);
  4436  00C3  3033               	movlw	(low (wl_module_tx_config@tx_addr| 0))& (0+255)
  4437  00C4  3183  233A  3180   	fcall	_wl_module_set_TADDR
  4438  00C7  2862               	goto	l2192
  4439  00C8                     l2224:
  4440                           
  4441                           ;wl_module.c: 181:      tx_addr[1] = tx_addr[2] = tx_addr[3] = tx_addr[4] = 0x30;
  4442  00C8  3002               	movlw	2
  4443  00C9  3E33               	addlw	(low (wl_module_tx_config@tx_addr| 0))& (0+255)
  4444  00CA  0086               	movwf	6
  4445  00CB  0187               	clrf	7
  4446  00CC  3003               	movlw	3
  4447  00CD  3E33               	addlw	(low (wl_module_tx_config@tx_addr| 0))& (0+255)
  4448  00CE  0084               	movwf	4
  4449  00CF  0185               	clrf	5
  4450  00D0  3030               	movlw	48
  4451  00D1  00B7               	movwf	wl_module_tx_config@tx_addr+4
  4452  00D2  3F80               	movwi [0]fsr0
  4453  00D3  3FC0               	movwi [0]fsr1
  4454  00D4  00B0               	movwf	??_wl_module_tx_config
  4455  00D5  0830               	movf	??_wl_module_tx_config,w
  4456  00D6  00B4               	movwf	wl_module_tx_config@tx_addr+1
  4457  00D7                     l2226:
  4458                           
  4459                           ;wl_module.c: 182:      tx_addr[0] = 0xC6;
  4460  00D7  30C6               	movlw	198
  4461  00D8  00B0               	movwf	??_wl_module_tx_config
  4462  00D9  0830               	movf	??_wl_module_tx_config,w
  4463  00DA  00B3               	movwf	wl_module_tx_config@tx_addr
  4464  00DB                     l2228:
  4465                           
  4466                           ;wl_module.c: 183:      wl_module_set_TADDR(tx_addr);
  4467  00DB  3033               	movlw	(low (wl_module_tx_config@tx_addr| 0))& (0+255)
  4468  00DC  3183  233A  3180   	fcall	_wl_module_set_TADDR
  4469  00DF  2862               	goto	l2192
  4470  00E0                     l2234:
  4471  00E0  0020               	movlb	0	; select bank0
  4472  00E1  0832               	movf	wl_module_tx_config@tx_nr,w
  4473  00E2  00B0               	movwf	??_wl_module_tx_config
  4474  00E3  01B1               	clrf	??_wl_module_tx_config+1
  4475                           
  4476                           ; Switch on 2 bytes has been partitioned into a top level switch of size 1, and 1 sub-sw
      +                          itches
  4477                           ; Switch size 1, requested type "simple"
  4478                           ; Number of cases is 1, Range of values is 0 to 0
  4479                           ; switch strategies available:
  4480                           ; Name         Instructions Cycles
  4481                           ; simple_byte            4     3 (average)
  4482                           ; direct_byte            8     6 (fixed)
  4483                           ; jumptable            260     6 (fixed)
  4484                           ;	Chosen strategy is simple_byte
  4485  00E4  0831               	movf	??_wl_module_tx_config+1,w
  4486  00E5  3A00               	xorlw	0	; case 0
  4487  00E6  1903               	skipnz
  4488  00E7  28E9               	goto	l2508
  4489  00E8  28FD               	goto	l2236
  4490  00E9                     l2508:
  4491                           
  4492                           ; Switch size 1, requested type "simple"
  4493                           ; Number of cases is 6, Range of values is 0 to 5
  4494                           ; switch strategies available:
  4495                           ; Name         Instructions Cycles
  4496                           ; direct_byte           18     6 (fixed)
  4497                           ; simple_byte           19    10 (average)
  4498                           ; jumptable            260     6 (fixed)
  4499                           ;	Chosen strategy is simple_byte
  4500  00E9  0830               	movf	??_wl_module_tx_config,w
  4501  00EA  3A00               	xorlw	0	; case 0
  4502  00EB  1903               	skipnz
  4503  00EC  2847               	goto	l2186
  4504  00ED  3A01               	xorlw	1	; case 1
  4505  00EE  1903               	skipnz
  4506  00EF  286B               	goto	l2194
  4507  00F0  3A03               	xorlw	3	; case 2
  4508  00F1  1903               	skipnz
  4509  00F2  2880               	goto	l2200
  4510  00F3  3A01               	xorlw	1	; case 3
  4511  00F4  1903               	skipnz
  4512  00F5  2898               	goto	l2208
  4513  00F6  3A07               	xorlw	7	; case 4
  4514  00F7  1903               	skipnz
  4515  00F8  28B0               	goto	l2216
  4516  00F9  3A01               	xorlw	1	; case 5
  4517  00FA  1903               	skipnz
  4518  00FB  28C8               	goto	l2224
  4519  00FC  28FD               	goto	l2236
  4520  00FD                     l2236:
  4521                           
  4522                           ;wl_module.c: 188:  PTX =0;
  4523  00FD  01F7               	clrf	_PTX	;volatile
  4524  00FE                     l2238:
  4525                           
  4526                           ;wl_module.c: 189:  wl_module_config_register(0x00, ( (1<<6) | (1<<3) | (1<<2) ) | ( (1<
      +                          <1) | (0<<0) ) );
  4527  00FE  304E               	movlw	78
  4528  00FF  0020               	movlb	0	; select bank0
  4529  0100  00B0               	movwf	??_wl_module_tx_config
  4530  0101  0830               	movf	??_wl_module_tx_config,w
  4531  0102  00A1               	movwf	wl_module_config_register@value
  4532  0103  3000               	movlw	0
  4533  0104  3182  22F5  3180   	fcall	_wl_module_config_register
  4534  0107                     l370:
  4535  0107  0008               	return
  4536  0108                     __end_of_wl_module_tx_config:
  4537                           
  4538                           	psect	text2
  4539  033A                     __ptext2:	
  4540 ;; *************** function _wl_module_set_TADDR *****************
  4541 ;; Defined at:
  4542 ;;		line 327 in file "wl_module.c"
  4543 ;; Parameters:    Size  Location     Type
  4544 ;;  adr             1    wreg     PTR unsigned char 
  4545 ;;		 -> wl_module_tx_config@tx_addr(5), 
  4546 ;; Auto vars:     Size  Location     Type
  4547 ;;  adr             1   14[BANK0 ] PTR unsigned char 
  4548 ;;		 -> wl_module_tx_config@tx_addr(5), 
  4549 ;; Return value:  Size  Location     Type
  4550 ;;                  1    wreg      void 
  4551 ;; Registers used:
  4552 ;;		wreg, fsr1l, fsr1h, status,2, status,0, pclath, cstack
  4553 ;; Tracked objects:
  4554 ;;		On entry : 0/0
  4555 ;;		On exit  : 0/0
  4556 ;;		Unchanged: 0/0
  4557 ;; Data sizes:     COMMON   BANK0   BANK1   BANK2   BANK3   BANK4   BANK5   BANK6   BANK7   BANK8   BANK9  BANK10  BANK1
      +1  BANK12
  4558 ;;      Params:         0       0       0       0       0       0       0       0       0       0       0       0       
      +0       0
  4559 ;;      Locals:         0       1       0       0       0       0       0       0       0       0       0       0       
      +0       0
  4560 ;;      Temps:          0       1       0       0       0       0       0       0       0       0       0       0       
      +0       0
  4561 ;;      Totals:         0       2       0       0       0       0       0       0       0       0       0       0       
      +0       0
  4562 ;;Total ram usage:        2 bytes
  4563 ;; Hardware stack levels used:    1
  4564 ;; Hardware stack levels required when called:    9
  4565 ;; This function calls:
  4566 ;;		_wl_module_write_register
  4567 ;; This function is called by:
  4568 ;;		_wl_module_tx_config
  4569 ;; This function uses a non-reentrant model
  4570 ;;
  4571                           
  4572                           
  4573                           ;psect for function _wl_module_set_TADDR
  4574  033A                     _wl_module_set_TADDR:
  4575                           
  4576                           ;incstack = 0
  4577                           ; Regs used in _wl_module_set_TADDR: [wreg+fsr1l+fsr1h+status,2+status,0+pclath+cstack]
  4578                           ;wl_module_set_TADDR@adr stored from wreg
  4579  033A  0020               	movlb	0	; select bank0
  4580  033B  00AE               	movwf	wl_module_set_TADDR@adr
  4581  033C                     l2166:
  4582                           
  4583                           ;wl_module.c: 327: void wl_module_set_TADDR(unsigned char * adr);wl_module.c: 329: {;wl_
      +                          module.c: 330:     wl_module_write_register(0x10, adr,5);
  4584  033C  082E               	movf	wl_module_set_TADDR@adr,w
  4585  033D  00A7               	movwf	wl_module_write_register@value
  4586  033E  3000               	movlw	0
  4587  033F  00A8               	movwf	wl_module_write_register@value+1
  4588  0340  3005               	movlw	5
  4589  0341  00AD               	movwf	??_wl_module_set_TADDR
  4590  0342  082D               	movf	??_wl_module_set_TADDR,w
  4591  0343  00A9               	movwf	wl_module_write_register@len
  4592  0344  3010               	movlw	16
  4593  0345  3182  22C3  3183   	fcall	_wl_module_write_register
  4594  0348                     l411:
  4595  0348  0008               	return
  4596  0349                     __end_of_wl_module_set_TADDR:
  4597                           
  4598                           	psect	text3
  4599  0308                     __ptext3:	
  4600 ;; *************** function _wl_module_set_RADDR *****************
  4601 ;; Defined at:
  4602 ;;		line 319 in file "wl_module.c"
  4603 ;; Parameters:    Size  Location     Type
  4604 ;;  adr             2   13[BANK0 ] PTR unsigned char 
  4605 ;;		 -> wl_module_tx_config@tx_addr(5), RAM(4096), 
  4606 ;; Auto vars:     Size  Location     Type
  4607 ;;		None
  4608 ;; Return value:  Size  Location     Type
  4609 ;;                  1    wreg      void 
  4610 ;; Registers used:
  4611 ;;		wreg, fsr1l, fsr1h, status,2, status,0, pclath, cstack
  4612 ;; Tracked objects:
  4613 ;;		On entry : 0/0
  4614 ;;		On exit  : 0/0
  4615 ;;		Unchanged: 0/0
  4616 ;; Data sizes:     COMMON   BANK0   BANK1   BANK2   BANK3   BANK4   BANK5   BANK6   BANK7   BANK8   BANK9  BANK10  BANK1
      +1  BANK12
  4617 ;;      Params:         0       2       0       0       0       0       0       0       0       0       0       0       
      +0       0
  4618 ;;      Locals:         0       0       0       0       0       0       0       0       0       0       0       0       
      +0       0
  4619 ;;      Temps:          0       1       0       0       0       0       0       0       0       0       0       0       
      +0       0
  4620 ;;      Totals:         0       3       0       0       0       0       0       0       0       0       0       0       
      +0       0
  4621 ;;Total ram usage:        3 bytes
  4622 ;; Hardware stack levels used:    1
  4623 ;; Hardware stack levels required when called:    9
  4624 ;; This function calls:
  4625 ;;		_wl_module_write_register
  4626 ;; This function is called by:
  4627 ;;		_wl_module_tx_config
  4628 ;;		_wl_module_config
  4629 ;; This function uses a non-reentrant model
  4630 ;;
  4631                           
  4632                           
  4633                           ;psect for function _wl_module_set_RADDR
  4634  0308                     _wl_module_set_RADDR:
  4635  0308                     l2160:	
  4636                           ;incstack = 0
  4637                           ; Regs used in _wl_module_set_RADDR: [wreg+fsr1l+fsr1h+status,2+status,0+pclath+cstack]
  4638                           
  4639                           
  4640                           ;wl_module.c: 319: void wl_module_set_RADDR(unsigned char * adr);wl_module.c: 321: {;wl_
      +                          module.c: 322:     LATCbits.LATC5 = 0;;
  4641  0308  0022               	movlb	2	; select bank2
  4642  0309  128E               	bcf	14,5	;volatile
  4643  030A                     l2162:
  4644                           
  4645                           ;wl_module.c: 323:     wl_module_write_register(0x0A,adr,5);
  4646  030A  0020               	movlb	0	; select bank0
  4647  030B  082E               	movf	wl_module_set_RADDR@adr+1,w
  4648  030C  00A8               	movwf	wl_module_write_register@value+1
  4649  030D  082D               	movf	wl_module_set_RADDR@adr,w
  4650  030E  00A7               	movwf	wl_module_write_register@value
  4651  030F  3005               	movlw	5
  4652  0310  00AF               	movwf	??_wl_module_set_RADDR
  4653  0311  082F               	movf	??_wl_module_set_RADDR,w
  4654  0312  00A9               	movwf	wl_module_write_register@len
  4655  0313  300A               	movlw	10
  4656  0314  3182  22C3  3183   	fcall	_wl_module_write_register
  4657  0317                     l2164:
  4658                           
  4659                           ;wl_module.c: 324:     LATCbits.LATC5 = 1;;
  4660  0317  0022               	movlb	2	; select bank2
  4661  0318  168E               	bsf	14,5	;volatile
  4662  0319                     l408:
  4663  0319  0008               	return
  4664  031A                     __end_of_wl_module_set_RADDR:
  4665                           
  4666                           	psect	text4
  4667  02C3                     __ptext4:	
  4668 ;; *************** function _wl_module_write_register *****************
  4669 ;; Defined at:
  4670 ;;		line 463 in file "wl_module.c"
  4671 ;; Parameters:    Size  Location     Type
  4672 ;;  reg             1    wreg     unsigned char 
  4673 ;;  value           2    7[BANK0 ] PTR unsigned char 
  4674 ;;		 -> wl_module_set_rx_pw@payloadwidth(1), wl_module_power_down@config(1), wl_module_set_as_tx@config(1), wl_module_tx
      +_config@tx_addr(5), 
  4675 ;;		 -> wl_module_rx_config@data(5), RAM(4096), 
  4676 ;;  len             1    9[BANK0 ] unsigned char 
  4677 ;; Auto vars:     Size  Location     Type
  4678 ;;  reg             1   12[BANK0 ] unsigned char 
  4679 ;; Return value:  Size  Location     Type
  4680 ;;                  1    wreg      void 
  4681 ;; Registers used:
  4682 ;;		wreg, fsr1l, fsr1h, status,2, status,0, pclath, cstack
  4683 ;; Tracked objects:
  4684 ;;		On entry : 0/0
  4685 ;;		On exit  : 0/0
  4686 ;;		Unchanged: 0/0
  4687 ;; Data sizes:     COMMON   BANK0   BANK1   BANK2   BANK3   BANK4   BANK5   BANK6   BANK7   BANK8   BANK9  BANK10  BANK1
      +1  BANK12
  4688 ;;      Params:         0       3       0       0       0       0       0       0       0       0       0       0       
      +0       0
  4689 ;;      Locals:         0       1       0       0       0       0       0       0       0       0       0       0       
      +0       0
  4690 ;;      Temps:          0       2       0       0       0       0       0       0       0       0       0       0       
      +0       0
  4691 ;;      Totals:         0       6       0       0       0       0       0       0       0       0       0       0       
      +0       0
  4692 ;;Total ram usage:        6 bytes
  4693 ;; Hardware stack levels used:    1
  4694 ;; Hardware stack levels required when called:    8
  4695 ;; This function calls:
  4696 ;;		_SPI_ExchangeByte
  4697 ;;		_SPI_WriteBlock
  4698 ;; This function is called by:
  4699 ;;		_wl_module_set_RADDR
  4700 ;;		_wl_module_set_TADDR
  4701 ;;		_wl_module_set_tx_addr
  4702 ;;		_wl_module_set_as_tx
  4703 ;;		_wl_module_power_down
  4704 ;;		_wl_module_set_rx_addr
  4705 ;;		_wl_module_set_rx_pw
  4706 ;; This function uses a non-reentrant model
  4707 ;;
  4708                           
  4709                           
  4710                           ;psect for function _wl_module_write_register
  4711  02C3                     _wl_module_write_register:
  4712                           
  4713                           ;incstack = 0
  4714                           ; Regs used in _wl_module_write_register: [wreg+fsr1l+fsr1h+status,2+status,0+pclath+cst
      +                          ack]
  4715                           ;wl_module_write_register@reg stored from wreg
  4716  02C3  0020               	movlb	0	; select bank0
  4717  02C4  00AC               	movwf	wl_module_write_register@reg
  4718  02C5                     l2130:
  4719                           
  4720                           ;wl_module.c: 463: void wl_module_write_register(unsigned char reg, unsigned char * valu
      +                          e, unsigned char len);wl_module.c: 465: {;wl_module.c: 466:     LATCbits.LATC6 = 0;;
  4721  02C5  0022               	movlb	2	; select bank2
  4722  02C6  130E               	bcf	14,6	;volatile
  4723  02C7                     l2132:
  4724                           
  4725                           ;wl_module.c: 467:     SPI_ExchangeByte(0x20 | (0x1F & reg));
  4726  02C7  0020               	movlb	0	; select bank0
  4727  02C8  082C               	movf	wl_module_write_register@reg,w
  4728  02C9  391F               	andlw	31
  4729  02CA  3820               	iorlw	32
  4730  02CB  3183  2349  3182   	fcall	_SPI_ExchangeByte
  4731  02CE                     l2134:
  4732                           
  4733                           ;wl_module.c: 468:    SPI_WriteBlock(value,len);
  4734  02CE  0020               	movlb	0	; select bank0
  4735  02CF  0828               	movf	wl_module_write_register@value+1,w
  4736  02D0  00A2               	movwf	SPI_WriteBlock@block+1
  4737  02D1  0827               	movf	wl_module_write_register@value,w
  4738  02D2  00A1               	movwf	SPI_WriteBlock@block
  4739  02D3  0829               	movf	wl_module_write_register@len,w
  4740  02D4  00AA               	movwf	??_wl_module_write_register
  4741  02D5  01AB               	clrf	??_wl_module_write_register+1
  4742  02D6  082A               	movf	??_wl_module_write_register,w
  4743  02D7  00A3               	movwf	SPI_WriteBlock@blockSize
  4744  02D8  082B               	movf	??_wl_module_write_register+1,w
  4745  02D9  00A4               	movwf	SPI_WriteBlock@blockSize+1
  4746  02DA  3182  22A3  3182   	fcall	_SPI_WriteBlock
  4747  02DD                     l2136:
  4748                           
  4749                           ;wl_module.c: 469:     LATCbits.LATC6 = 1;;
  4750  02DD  0022               	movlb	2	; select bank2
  4751  02DE  170E               	bsf	14,6	;volatile
  4752  02DF                     l454:
  4753  02DF  0008               	return
  4754  02E0                     __end_of_wl_module_write_register:
  4755                           
  4756                           	psect	text5
  4757  01CE                     __ptext5:	
  4758 ;; *************** function _wl_module_send *****************
  4759 ;; Defined at:
  4760 ;;		line 473 in file "wl_module.c"
  4761 ;; Parameters:    Size  Location     Type
  4762 ;;  value           1    wreg     PTR unsigned char 
  4763 ;;		 -> main@payload(32), 
  4764 ;;  len             1    7[BANK0 ] unsigned char 
  4765 ;; Auto vars:     Size  Location     Type
  4766 ;;  value           1   10[BANK0 ] PTR unsigned char 
  4767 ;;		 -> main@payload(32), 
  4768 ;; Return value:  Size  Location     Type
  4769 ;;                  1    wreg      void 
  4770 ;; Registers used:
  4771 ;;		wreg, fsr1l, fsr1h, status,2, status,0, pclath, cstack
  4772 ;; Tracked objects:
  4773 ;;		On entry : 0/0
  4774 ;;		On exit  : 0/0
  4775 ;;		Unchanged: 0/0
  4776 ;; Data sizes:     COMMON   BANK0   BANK1   BANK2   BANK3   BANK4   BANK5   BANK6   BANK7   BANK8   BANK9  BANK10  BANK1
      +1  BANK12
  4777 ;;      Params:         0       1       0       0       0       0       0       0       0       0       0       0       
      +0       0
  4778 ;;      Locals:         0       1       0       0       0       0       0       0       0       0       0       0       
      +0       0
  4779 ;;      Temps:          0       2       0       0       0       0       0       0       0       0       0       0       
      +0       0
  4780 ;;      Totals:         0       4       0       0       0       0       0       0       0       0       0       0       
      +0       0
  4781 ;;Total ram usage:        4 bytes
  4782 ;; Hardware stack levels used:    1
  4783 ;; Hardware stack levels required when called:    8
  4784 ;; This function calls:
  4785 ;;		_SPI_ExchangeByte
  4786 ;;		_SPI_WriteBlock
  4787 ;;		_wl_module_config_register
  4788 ;; This function is called by:
  4789 ;;		_main
  4790 ;; This function uses a non-reentrant model
  4791 ;;
  4792                           
  4793                           
  4794                           ;psect for function _wl_module_send
  4795  01CE                     _wl_module_send:
  4796                           
  4797                           ;incstack = 0
  4798                           ; Regs used in _wl_module_send: [wreg+fsr1l+fsr1h+status,2+status,0+pclath+cstack]
  4799                           ;wl_module_send@value stored from wreg
  4800  01CE  0020               	movlb	0	; select bank0
  4801  01CF  00AA               	movwf	wl_module_send@value
  4802  01D0                     l2244:
  4803  01D0                     l2246:	
  4804                           ;wl_module.c: 473: void wl_module_send(unsigned char * value, unsigned char len);wl_modu
      +                          le.c: 476: {;wl_module.c: 477:     while (PTX) {}
  4805                           
  4806  01D0  0877               	movf	_PTX,w	;volatile
  4807  01D1  1D03               	btfss	3,2
  4808  01D2  29D4               	goto	u551
  4809  01D3  29D5               	goto	u550
  4810  01D4                     u551:
  4811  01D4  29D0               	goto	l2246
  4812  01D5                     u550:
  4813  01D5                     l459:
  4814                           
  4815                           ;wl_module.c: 479:     LATCbits.LATC5 = 0;;
  4816  01D5  0022               	movlb	2	; select bank2
  4817  01D6  128E               	bcf	14,5	;volatile
  4818  01D7                     l2248:
  4819                           
  4820                           ;wl_module.c: 481:     PTX = 1;
  4821  01D7  3001               	movlw	1
  4822  01D8  0020               	movlb	0	; select bank0
  4823  01D9  00A8               	movwf	??_wl_module_send
  4824  01DA  0828               	movf	??_wl_module_send,w
  4825  01DB  00F7               	movwf	_PTX	;volatile
  4826  01DC                     l2250:
  4827                           
  4828                           ;wl_module.c: 482:     wl_module_config_register(0x00, ( (1<<6) | (1<<3) | (1<<2) ) | ( 
      +                          (1<<1) | (0<<0) ) );
  4829  01DC  304E               	movlw	78
  4830  01DD  00A8               	movwf	??_wl_module_send
  4831  01DE  0828               	movf	??_wl_module_send,w
  4832  01DF  00A1               	movwf	wl_module_config_register@value
  4833  01E0  3000               	movlw	0
  4834  01E1  3182  22F5  3181   	fcall	_wl_module_config_register
  4835  01E4                     l2252:
  4836                           
  4837                           ;wl_module.c: 484:     LATCbits.LATC6 = 0;;
  4838  01E4  0022               	movlb	2	; select bank2
  4839  01E5  130E               	bcf	14,6	;volatile
  4840  01E6                     l2254:
  4841                           
  4842                           ;wl_module.c: 485:     SPI_ExchangeByte( 0xE1 );
  4843  01E6  30E1               	movlw	225
  4844  01E7  3183  2349  3181   	fcall	_SPI_ExchangeByte
  4845  01EA                     l2256:
  4846                           
  4847                           ;wl_module.c: 486:     LATCbits.LATC6 = 1;;
  4848  01EA  0022               	movlb	2	; select bank2
  4849  01EB  170E               	bsf	14,6	;volatile
  4850  01EC                     l2258:
  4851                           
  4852                           ;wl_module.c: 488:     LATCbits.LATC6 = 0;;
  4853  01EC  130E               	bcf	14,6	;volatile
  4854  01ED                     l2260:
  4855                           
  4856                           ;wl_module.c: 489:     SPI_ExchangeByte( 0xA0 );
  4857  01ED  30A0               	movlw	160
  4858  01EE  3183  2349  3181   	fcall	_SPI_ExchangeByte
  4859  01F1                     l2262:
  4860                           
  4861                           ;wl_module.c: 490:     SPI_WriteBlock(value,len);
  4862  01F1  0020               	movlb	0	; select bank0
  4863  01F2  082A               	movf	wl_module_send@value,w
  4864  01F3  00A1               	movwf	SPI_WriteBlock@block
  4865  01F4  3000               	movlw	0
  4866  01F5  00A2               	movwf	SPI_WriteBlock@block+1
  4867  01F6  0827               	movf	wl_module_send@len,w
  4868  01F7  00A8               	movwf	??_wl_module_send
  4869  01F8  01A9               	clrf	??_wl_module_send+1
  4870  01F9  0828               	movf	??_wl_module_send,w
  4871  01FA  00A3               	movwf	SPI_WriteBlock@blockSize
  4872  01FB  0829               	movf	??_wl_module_send+1,w
  4873  01FC  00A4               	movwf	SPI_WriteBlock@blockSize+1
  4874  01FD  3182  22A3  3181   	fcall	_SPI_WriteBlock
  4875  0200                     l2264:
  4876                           
  4877                           ;wl_module.c: 491:     LATCbits.LATC6 = 1;;
  4878  0200  0022               	movlb	2	; select bank2
  4879  0201  170E               	bsf	14,6	;volatile
  4880  0202                     l2266:
  4881                           
  4882                           ;wl_module.c: 493:     LATCbits.LATC5 = 1;;
  4883  0202  168E               	bsf	14,5	;volatile
  4884  0203                     l2268:
  4885                           
  4886                           ;wl_module.c: 494:     _delay((unsigned long)((10)*(16000000/4000000.0)));
  4887  0203  300D               	movlw	13
  4888  0204                     u717:
  4889  0204  0B89               	decfsz	9,f
  4890  0205  2A04               	goto	u717
  4891  0206  0000               	nop
  4892  0207                     l2270:
  4893                           
  4894                           ;wl_module.c: 495:     LATCbits.LATC5 = 0;;
  4895  0207  0022               	movlb	2	; select bank2
  4896  0208  128E               	bcf	14,5	;volatile
  4897  0209                     l460:
  4898  0209  0008               	return
  4899  020A                     __end_of_wl_module_send:
  4900                           
  4901                           	psect	text6
  4902  02F5                     __ptext6:	
  4903 ;; *************** function _wl_module_config_register *****************
  4904 ;; Defined at:
  4905 ;;		line 445 in file "wl_module.c"
  4906 ;; Parameters:    Size  Location     Type
  4907 ;;  reg             1    wreg     unsigned char 
  4908 ;;  value           1    1[BANK0 ] unsigned char 
  4909 ;; Auto vars:     Size  Location     Type
  4910 ;;  reg             1    2[BANK0 ] unsigned char 
  4911 ;; Return value:  Size  Location     Type
  4912 ;;                  1    wreg      void 
  4913 ;; Registers used:
  4914 ;;		wreg, status,2, status,0, pclath, cstack
  4915 ;; Tracked objects:
  4916 ;;		On entry : 0/0
  4917 ;;		On exit  : 0/0
  4918 ;;		Unchanged: 0/0
  4919 ;; Data sizes:     COMMON   BANK0   BANK1   BANK2   BANK3   BANK4   BANK5   BANK6   BANK7   BANK8   BANK9  BANK10  BANK1
      +1  BANK12
  4920 ;;      Params:         0       1       0       0       0       0       0       0       0       0       0       0       
      +0       0
  4921 ;;      Locals:         0       1       0       0       0       0       0       0       0       0       0       0       
      +0       0
  4922 ;;      Temps:          0       0       0       0       0       0       0       0       0       0       0       0       
      +0       0
  4923 ;;      Totals:         0       2       0       0       0       0       0       0       0       0       0       0       
      +0       0
  4924 ;;Total ram usage:        2 bytes
  4925 ;; Hardware stack levels used:    1
  4926 ;; Hardware stack levels required when called:    7
  4927 ;; This function calls:
  4928 ;;		_SPI_ExchangeByte
  4929 ;; This function is called by:
  4930 ;;		_wl_module_tx_config
  4931 ;;		_wl_module_send
  4932 ;;		_wl_module_config
  4933 ;;		_wl_module_rx_config
  4934 ;;		_wl_module_get_data
  4935 ;; This function uses a non-reentrant model
  4936 ;;
  4937                           
  4938                           
  4939                           ;psect for function _wl_module_config_register
  4940  02F5                     _wl_module_config_register:
  4941                           
  4942                           ;incstack = 0
  4943                           ; Regs used in _wl_module_config_register: [wreg+status,2+status,0+pclath+cstack]
  4944                           ;wl_module_config_register@reg stored from wreg
  4945  02F5  0020               	movlb	0	; select bank0
  4946  02F6  00A2               	movwf	wl_module_config_register@reg
  4947  02F7                     l2154:
  4948                           
  4949                           ;wl_module.c: 445: void wl_module_config_register(unsigned char reg, unsigned char value
      +                          );wl_module.c: 447: {;wl_module.c: 448:     LATCbits.LATC6 = 0;;
  4950  02F7  0022               	movlb	2	; select bank2
  4951  02F8  130E               	bcf	14,6	;volatile
  4952  02F9                     l2156:
  4953                           
  4954                           ;wl_module.c: 449:     SPI_ExchangeByte(0x20 | (0x1F & reg));
  4955  02F9  0020               	movlb	0	; select bank0
  4956  02FA  0822               	movf	wl_module_config_register@reg,w
  4957  02FB  391F               	andlw	31
  4958  02FC  3820               	iorlw	32
  4959  02FD  3183  2349  3182   	fcall	_SPI_ExchangeByte
  4960                           
  4961                           ;wl_module.c: 450:    SPI_ExchangeByte(value);
  4962  0300  0020               	movlb	0	; select bank0
  4963  0301  0821               	movf	wl_module_config_register@value,w
  4964  0302  3183  2349  3182   	fcall	_SPI_ExchangeByte
  4965  0305                     l2158:
  4966                           
  4967                           ;wl_module.c: 451:     LATCbits.LATC6 = 1;;
  4968  0305  0022               	movlb	2	; select bank2
  4969  0306  170E               	bsf	14,6	;volatile
  4970  0307                     l448:
  4971  0307  0008               	return
  4972  0308                     __end_of_wl_module_config_register:
  4973                           
  4974                           	psect	text7
  4975  02A3                     __ptext7:	
  4976 ;; *************** function _SPI_WriteBlock *****************
  4977 ;; Defined at:
  4978 ;;		line 118 in file "mcc_generated_files/spi.c"
  4979 ;; Parameters:    Size  Location     Type
  4980 ;;  block           2    1[BANK0 ] PTR void 
  4981 ;;		 -> wl_module_set_rx_pw@payloadwidth(1), wl_module_power_down@config(1), wl_module_set_as_tx@config(1), wl_module_tx
      +_config@tx_addr(5), 
  4982 ;;		 -> wl_module_rx_config@data(5), RAM(4096), main@payload(32), 
  4983 ;;  blockSize       2    3[BANK0 ] unsigned int 
  4984 ;; Auto vars:     Size  Location     Type
  4985 ;;  data            2    5[BANK0 ] PTR unsigned char 
  4986 ;;		 -> wl_module_set_rx_pw@payloadwidth(1), wl_module_power_down@config(1), wl_module_set_as_tx@config(1), wl_module_tx
      +_config@tx_addr(5), 
  4987 ;;		 -> wl_module_rx_config@data(5), RAM(4096), main@payload(32), 
  4988 ;; Return value:  Size  Location     Type
  4989 ;;                  1    wreg      void 
  4990 ;; Registers used:
  4991 ;;		wreg, fsr1l, fsr1h, status,2, status,0, pclath, cstack
  4992 ;; Tracked objects:
  4993 ;;		On entry : 0/0
  4994 ;;		On exit  : 0/0
  4995 ;;		Unchanged: 0/0
  4996 ;; Data sizes:     COMMON   BANK0   BANK1   BANK2   BANK3   BANK4   BANK5   BANK6   BANK7   BANK8   BANK9  BANK10  BANK1
      +1  BANK12
  4997 ;;      Params:         0       4       0       0       0       0       0       0       0       0       0       0       
      +0       0
  4998 ;;      Locals:         0       2       0       0       0       0       0       0       0       0       0       0       
      +0       0
  4999 ;;      Temps:          0       0       0       0       0       0       0       0       0       0       0       0       
      +0       0
  5000 ;;      Totals:         0       6       0       0       0       0       0       0       0       0       0       0       
      +0       0
  5001 ;;Total ram usage:        6 bytes
  5002 ;; Hardware stack levels used:    1
  5003 ;; Hardware stack levels required when called:    7
  5004 ;; This function calls:
  5005 ;;		_SPI_ExchangeByte
  5006 ;; This function is called by:
  5007 ;;		_wl_module_write_register
  5008 ;;		_wl_module_send
  5009 ;; This function uses a non-reentrant model
  5010 ;;
  5011                           
  5012                           
  5013                           ;psect for function _SPI_WriteBlock
  5014  02A3                     _SPI_WriteBlock:
  5015  02A3                     l2114:	
  5016                           ;incstack = 0
  5017                           ; Regs used in _SPI_WriteBlock: [wreg+fsr1l+fsr1h+status,2+status,0+pclath+cstack]
  5018                           
  5019                           
  5020                           ;mcc_generated_files/spi.c: 118: void SPI_WriteBlock(void *block, size_t blockSize);mcc_
      +                          generated_files/spi.c: 119: {;mcc_generated_files/spi.c: 120:     uint8_t *data = block;
  5021  02A3  0020               	movlb	0	; select bank0
  5022  02A4  0822               	movf	SPI_WriteBlock@block+1,w
  5023  02A5  00A6               	movwf	SPI_WriteBlock@data+1
  5024  02A6  0821               	movf	SPI_WriteBlock@block,w
  5025  02A7  00A5               	movwf	SPI_WriteBlock@data
  5026                           
  5027                           ;mcc_generated_files/spi.c: 121:     while(blockSize--)
  5028  02A8  2AB6               	goto	l2120
  5029  02A9                     l2116:
  5030                           
  5031                           ;mcc_generated_files/spi.c: 122:     {;mcc_generated_files/spi.c: 123:         SPI_Excha
      +                          ngeByte(*data++);
  5032  02A9  0825               	movf	SPI_WriteBlock@data,w
  5033  02AA  0086               	movwf	6
  5034  02AB  0826               	movf	SPI_WriteBlock@data+1,w
  5035  02AC  0087               	movwf	7
  5036  02AD  0801               	movf	1,w
  5037  02AE  3183  2349  3182   	fcall	_SPI_ExchangeByte
  5038  02B1                     l2118:
  5039  02B1  3001               	movlw	1
  5040  02B2  0020               	movlb	0	; select bank0
  5041  02B3  07A5               	addwf	SPI_WriteBlock@data,f
  5042  02B4  3000               	movlw	0
  5043  02B5  3DA6               	addwfc	SPI_WriteBlock@data+1,f
  5044  02B6                     l2120:
  5045                           
  5046                           ;mcc_generated_files/spi.c: 121:     while(blockSize--)
  5047  02B6  3001               	movlw	1
  5048  02B7  02A3               	subwf	SPI_WriteBlock@blockSize,f
  5049  02B8  3000               	movlw	0
  5050  02B9  3BA4               	subwfb	SPI_WriteBlock@blockSize+1,f
  5051  02BA  0A23               	incf	SPI_WriteBlock@blockSize,w
  5052  02BB  1D03               	skipz
  5053  02BC  2AC1               	goto	u531
  5054  02BD  0A24               	incf	SPI_WriteBlock@blockSize+1,w
  5055  02BE  1D03               	btfss	3,2
  5056  02BF  2AC1               	goto	u531
  5057  02C0  2AC2               	goto	u530
  5058  02C1                     u531:
  5059  02C1  2AA9               	goto	l2116
  5060  02C2                     u530:
  5061  02C2                     l237:
  5062  02C2  0008               	return
  5063  02C3                     __end_of_SPI_WriteBlock:
  5064                           
  5065                           	psect	text8
  5066  0349                     __ptext8:	
  5067 ;; *************** function _SPI_ExchangeByte *****************
  5068 ;; Defined at:
  5069 ;;		line 97 in file "mcc_generated_files/spi.c"
  5070 ;; Parameters:    Size  Location     Type
  5071 ;;  data            1    wreg     unsigned char 
  5072 ;; Auto vars:     Size  Location     Type
  5073 ;;  data            1    0[BANK0 ] unsigned char 
  5074 ;; Return value:  Size  Location     Type
  5075 ;;                  1    wreg      unsigned char 
  5076 ;; Registers used:
  5077 ;;		wreg
  5078 ;; Tracked objects:
  5079 ;;		On entry : 0/0
  5080 ;;		On exit  : 0/0
  5081 ;;		Unchanged: 0/0
  5082 ;; Data sizes:     COMMON   BANK0   BANK1   BANK2   BANK3   BANK4   BANK5   BANK6   BANK7   BANK8   BANK9  BANK10  BANK1
      +1  BANK12
  5083 ;;      Params:         0       0       0       0       0       0       0       0       0       0       0       0       
      +0       0
  5084 ;;      Locals:         0       1       0       0       0       0       0       0       0       0       0       0       
      +0       0
  5085 ;;      Temps:          0       0       0       0       0       0       0       0       0       0       0       0       
      +0       0
  5086 ;;      Totals:         0       1       0       0       0       0       0       0       0       0       0       0       
      +0       0
  5087 ;;Total ram usage:        1 bytes
  5088 ;; Hardware stack levels used:    1
  5089 ;; Hardware stack levels required when called:    6
  5090 ;; This function calls:
  5091 ;;		Nothing
  5092 ;; This function is called by:
  5093 ;;		_SPI_WriteBlock
  5094 ;;		_wl_module_config_register
  5095 ;;		_wl_module_write_register
  5096 ;;		_wl_module_send
  5097 ;;		_SPI_ReadBlock
  5098 ;;		_wl_module_data_ready
  5099 ;;		_wl_module_get_one_byte
  5100 ;;		_wl_module_get_data
  5101 ;;		_wl_module_read_register
  5102 ;; This function uses a non-reentrant model
  5103 ;;
  5104                           
  5105                           
  5106                           ;psect for function _SPI_ExchangeByte
  5107  0349                     _SPI_ExchangeByte:
  5108                           
  5109                           ;incstack = 0
  5110                           ; Regs used in _SPI_ExchangeByte: [wreg]
  5111                           ;SPI_ExchangeByte@data stored from wreg
  5112  0349  0020               	movlb	0	; select bank0
  5113  034A  00A0               	movwf	SPI_ExchangeByte@data
  5114  034B                     l2108:
  5115                           
  5116                           ;mcc_generated_files/spi.c: 97: uint8_t SPI_ExchangeByte(uint8_t data);mcc_generated_fil
      +                          es/spi.c: 98: {;mcc_generated_files/spi.c: 99:     SSP1BUF = data;
  5117  034B  0820               	movf	SPI_ExchangeByte@data,w
  5118  034C  0024               	movlb	4	; select bank4
  5119  034D  0091               	movwf	17	;volatile
  5120  034E                     l219:	
  5121                           ;mcc_generated_files/spi.c: 100:     while(!PIR1bits.SSP1IF);
  5122                           
  5123  034E  0020               	movlb	0	; select bank0
  5124  034F  1D90               	btfss	16,3	;volatile
  5125  0350  2B52               	goto	u521
  5126  0351  2B53               	goto	u520
  5127  0352                     u521:
  5128  0352  2B4E               	goto	l219
  5129  0353                     u520:
  5130  0353                     l221:
  5131                           
  5132                           ;mcc_generated_files/spi.c: 101:     PIR1bits.SSP1IF = 0;
  5133  0353  1190               	bcf	16,3	;volatile
  5134  0354                     l2110:
  5135                           
  5136                           ;mcc_generated_files/spi.c: 102:     return SSP1BUF;
  5137  0354  0024               	movlb	4	; select bank4
  5138  0355  0811               	movf	17,w	;volatile
  5139  0356                     l222:
  5140  0356  0008               	return
  5141  0357                     __end_of_SPI_ExchangeByte:
  5142                           
  5143                           	psect	text9
  5144  037D                     __ptext9:	
  5145 ;; *************** function _wl_module_init *****************
  5146 ;; Defined at:
  5147 ;;		line 44 in file "wl_module.c"
  5148 ;; Parameters:    Size  Location     Type
  5149 ;;		None
  5150 ;; Auto vars:     Size  Location     Type
  5151 ;;		None
  5152 ;; Return value:  Size  Location     Type
  5153 ;;                  1    wreg      void 
  5154 ;; Registers used:
  5155 ;;		None
  5156 ;; Tracked objects:
  5157 ;;		On entry : 0/0
  5158 ;;		On exit  : 0/0
  5159 ;;		Unchanged: 0/0
  5160 ;; Data sizes:     COMMON   BANK0   BANK1   BANK2   BANK3   BANK4   BANK5   BANK6   BANK7   BANK8   BANK9  BANK10  BANK1
      +1  BANK12
  5161 ;;      Params:         0       0       0       0       0       0       0       0       0       0       0       0       
      +0       0
  5162 ;;      Locals:         0       0       0       0       0       0       0       0       0       0       0       0       
      +0       0
  5163 ;;      Temps:          0       0       0       0       0       0       0       0       0       0       0       0       
      +0       0
  5164 ;;      Totals:         0       0       0       0       0       0       0       0       0       0       0       0       
      +0       0
  5165 ;;Total ram usage:        0 bytes
  5166 ;; Hardware stack levels used:    1
  5167 ;; Hardware stack levels required when called:    6
  5168 ;; This function calls:
  5169 ;;		Nothing
  5170 ;; This function is called by:
  5171 ;;		_main
  5172 ;; This function uses a non-reentrant model
  5173 ;;
  5174                           
  5175                           
  5176                           ;psect for function _wl_module_init
  5177  037D                     _wl_module_init:
  5178  037D                     l1776:	
  5179                           ;incstack = 0
  5180                           ; Regs used in _wl_module_init: []
  5181                           
  5182                           
  5183                           ;wl_module.c: 49:     TRISCbits.TRISC5 = 0;
  5184  037D  0021               	movlb	1	; select bank1
  5185  037E  128E               	bcf	14,5	;volatile
  5186                           
  5187                           ;wl_module.c: 50:     TRISCbits.TRISC6 = 0;
  5188  037F  130E               	bcf	14,6	;volatile
  5189                           
  5190                           ;wl_module.c: 52:     ANSELCbits.ANSC6=0;
  5191  0380  0023               	movlb	3	; select bank3
  5192  0381  130E               	bcf	14,6	;volatile
  5193                           
  5194                           ;wl_module.c: 53:     LATCbits.LATC5 = 0;;
  5195  0382  0022               	movlb	2	; select bank2
  5196  0383  128E               	bcf	14,5	;volatile
  5197                           
  5198                           ;wl_module.c: 54:     LATCbits.LATC6 = 1;;
  5199  0384  170E               	bsf	14,6	;volatile
  5200  0385                     l353:
  5201  0385  0008               	return
  5202  0386                     __end_of_wl_module_init:
  5203                           
  5204                           	psect	text10
  5205  031A                     __ptext10:	
  5206 ;; *************** function _SYSTEM_Initialize *****************
  5207 ;; Defined at:
  5208 ;;		line 50 in file "mcc_generated_files/mcc.c"
  5209 ;; Parameters:    Size  Location     Type
  5210 ;;		None
  5211 ;; Auto vars:     Size  Location     Type
  5212 ;;		None
  5213 ;; Return value:  Size  Location     Type
  5214 ;;                  1    wreg      void 
  5215 ;; Registers used:
  5216 ;;		wreg, status,2, status,0, pclath, cstack
  5217 ;; Tracked objects:
  5218 ;;		On entry : 0/0
  5219 ;;		On exit  : 0/0
  5220 ;;		Unchanged: 0/0
  5221 ;; Data sizes:     COMMON   BANK0   BANK1   BANK2   BANK3   BANK4   BANK5   BANK6   BANK7   BANK8   BANK9  BANK10  BANK1
      +1  BANK12
  5222 ;;      Params:         0       0       0       0       0       0       0       0       0       0       0       0       
      +0       0
  5223 ;;      Locals:         0       0       0       0       0       0       0       0       0       0       0       0       
      +0       0
  5224 ;;      Temps:          0       0       0       0       0       0       0       0       0       0       0       0       
      +0       0
  5225 ;;      Totals:         0       0       0       0       0       0       0       0       0       0       0       0       
      +0       0
  5226 ;;Total ram usage:        0 bytes
  5227 ;; Hardware stack levels used:    1
  5228 ;; Hardware stack levels required when called:    8
  5229 ;; This function calls:
  5230 ;;		_EUSART_Initialize
  5231 ;;		_EXT_INT_Initialize
  5232 ;;		_OSCILLATOR_Initialize
  5233 ;;		_PIN_MANAGER_Initialize
  5234 ;;		_SPI_Initialize
  5235 ;; This function is called by:
  5236 ;;		_main
  5237 ;; This function uses a non-reentrant model
  5238 ;;
  5239                           
  5240                           
  5241                           ;psect for function _SYSTEM_Initialize
  5242  031A                     _SYSTEM_Initialize:
  5243  031A                     l2168:	
  5244                           ;incstack = 0
  5245                           ; Regs used in _SYSTEM_Initialize: [wreg+status,2+status,0+pclath+cstack]
  5246                           
  5247                           
  5248                           ;mcc_generated_files/mcc.c: 52:     SPI_Initialize();
  5249  031A  3182  22E0  3183   	fcall	_SPI_Initialize
  5250                           
  5251                           ;mcc_generated_files/mcc.c: 53:     PIN_MANAGER_Initialize();
  5252  031D  3182  220A  3183   	fcall	_PIN_MANAGER_Initialize
  5253                           
  5254                           ;mcc_generated_files/mcc.c: 54:     OSCILLATOR_Initialize();
  5255  0320  3183  2386  3183   	fcall	_OSCILLATOR_Initialize
  5256                           
  5257                           ;mcc_generated_files/mcc.c: 55:     EXT_INT_Initialize();
  5258  0323  3183  2357  3183   	fcall	_EXT_INT_Initialize
  5259                           
  5260                           ;mcc_generated_files/mcc.c: 56:     EUSART_Initialize();
  5261  0326  3182  227E  3183   	fcall	_EUSART_Initialize
  5262  0329                     l19:
  5263  0329  0008               	return
  5264  032A                     __end_of_SYSTEM_Initialize:
  5265                           
  5266                           	psect	text11
  5267  02E0                     __ptext11:	
  5268 ;; *************** function _SPI_Initialize *****************
  5269 ;; Defined at:
  5270 ;;		line 62 in file "mcc_generated_files/spi.c"
  5271 ;; Parameters:    Size  Location     Type
  5272 ;;		None
  5273 ;; Auto vars:     Size  Location     Type
  5274 ;;		None
  5275 ;; Return value:  Size  Location     Type
  5276 ;;                  1    wreg      void 
  5277 ;; Registers used:
  5278 ;;		wreg, status,2
  5279 ;; Tracked objects:
  5280 ;;		On entry : 0/0
  5281 ;;		On exit  : 0/0
  5282 ;;		Unchanged: 0/0
  5283 ;; Data sizes:     COMMON   BANK0   BANK1   BANK2   BANK3   BANK4   BANK5   BANK6   BANK7   BANK8   BANK9  BANK10  BANK1
      +1  BANK12
  5284 ;;      Params:         0       0       0       0       0       0       0       0       0       0       0       0       
      +0       0
  5285 ;;      Locals:         0       0       0       0       0       0       0       0       0       0       0       0       
      +0       0
  5286 ;;      Temps:          0       0       0       0       0       0       0       0       0       0       0       0       
      +0       0
  5287 ;;      Totals:         0       0       0       0       0       0       0       0       0       0       0       0       
      +0       0
  5288 ;;Total ram usage:        0 bytes
  5289 ;; Hardware stack levels used:    1
  5290 ;; Hardware stack levels required when called:    6
  5291 ;; This function calls:
  5292 ;;		Nothing
  5293 ;; This function is called by:
  5294 ;;		_SYSTEM_Initialize
  5295 ;; This function uses a non-reentrant model
  5296 ;;
  5297                           
  5298                           
  5299                           ;psect for function _SPI_Initialize
  5300  02E0                     _SPI_Initialize:
  5301  02E0                     l1654:	
  5302                           ;incstack = 0
  5303                           ; Regs used in _SPI_Initialize: [wreg+status,2]
  5304                           
  5305                           
  5306                           ;mcc_generated_files/spi.c: 65:     SSPCLKPPS = 14;
  5307  02E0  300E               	movlw	14
  5308  02E1  003C               	movlb	28	; select bank28
  5309  02E2  00A0               	movwf	32	;volatile
  5310                           
  5311                           ;mcc_generated_files/spi.c: 66:     SSPDATPPS = 12;
  5312  02E3  300C               	movlw	12
  5313  02E4  00A1               	movwf	33	;volatile
  5314                           
  5315                           ;mcc_generated_files/spi.c: 67:     RB6PPS = 16;
  5316  02E5  3010               	movlw	16
  5317  02E6  003D               	movlb	29	; select bank29
  5318  02E7  009E               	movwf	30	;volatile
  5319                           
  5320                           ;mcc_generated_files/spi.c: 68:     RB5PPS = 17;
  5321  02E8  3011               	movlw	17
  5322  02E9  009D               	movwf	29	;volatile
  5323                           
  5324                           ;mcc_generated_files/spi.c: 70:     SSP1STAT = 0xC0;
  5325  02EA  30C0               	movlw	192
  5326  02EB  0024               	movlb	4	; select bank4
  5327  02EC  0094               	movwf	20	;volatile
  5328  02ED                     l1656:
  5329                           
  5330                           ;mcc_generated_files/spi.c: 71:     SSP1CON1 = 0x00;
  5331  02ED  0195               	clrf	21	;volatile
  5332  02EE                     l1658:
  5333                           
  5334                           ;mcc_generated_files/spi.c: 72:     SSP1ADD = 0x01;
  5335  02EE  3001               	movlw	1
  5336  02EF  0092               	movwf	18	;volatile
  5337  02F0                     l1660:
  5338                           
  5339                           ;mcc_generated_files/spi.c: 73:     TRISBbits.TRISB6 = 0;
  5340  02F0  0021               	movlb	1	; select bank1
  5341  02F1  130D               	bcf	13,6	;volatile
  5342  02F2                     l1662:
  5343                           
  5344                           ;mcc_generated_files/spi.c: 74:     SSP1CON1bits.SSPEN = 0;
  5345  02F2  0024               	movlb	4	; select bank4
  5346  02F3  1295               	bcf	21,5	;volatile
  5347  02F4                     l209:
  5348  02F4  0008               	return
  5349  02F5                     __end_of_SPI_Initialize:
  5350                           
  5351                           	psect	text12
  5352  020A                     __ptext12:	
  5353 ;; *************** function _PIN_MANAGER_Initialize *****************
  5354 ;; Defined at:
  5355 ;;		line 55 in file "mcc_generated_files/pin_manager.c"
  5356 ;; Parameters:    Size  Location     Type
  5357 ;;		None
  5358 ;; Auto vars:     Size  Location     Type
  5359 ;;		None
  5360 ;; Return value:  Size  Location     Type
  5361 ;;                  1    wreg      void 
  5362 ;; Registers used:
  5363 ;;		wreg, status,2
  5364 ;; Tracked objects:
  5365 ;;		On entry : 0/0
  5366 ;;		On exit  : 0/0
  5367 ;;		Unchanged: 0/0
  5368 ;; Data sizes:     COMMON   BANK0   BANK1   BANK2   BANK3   BANK4   BANK5   BANK6   BANK7   BANK8   BANK9  BANK10  BANK1
      +1  BANK12
  5369 ;;      Params:         0       0       0       0       0       0       0       0       0       0       0       0       
      +0       0
  5370 ;;      Locals:         0       0       0       0       0       0       0       0       0       0       0       0       
      +0       0
  5371 ;;      Temps:          0       0       0       0       0       0       0       0       0       0       0       0       
      +0       0
  5372 ;;      Totals:         0       0       0       0       0       0       0       0       0       0       0       0       
      +0       0
  5373 ;;Total ram usage:        0 bytes
  5374 ;; Hardware stack levels used:    1
  5375 ;; Hardware stack levels required when called:    6
  5376 ;; This function calls:
  5377 ;;		Nothing
  5378 ;; This function is called by:
  5379 ;;		_SYSTEM_Initialize
  5380 ;; This function uses a non-reentrant model
  5381 ;;
  5382                           
  5383                           
  5384                           ;psect for function _PIN_MANAGER_Initialize
  5385  020A                     _PIN_MANAGER_Initialize:
  5386  020A                     l1664:	
  5387                           ;incstack = 0
  5388                           ; Regs used in _PIN_MANAGER_Initialize: [wreg+status,2]
  5389                           
  5390                           
  5391                           ;mcc_generated_files/pin_manager.c: 60:     LATA = 0x00;
  5392  020A  0022               	movlb	2	; select bank2
  5393  020B  018C               	clrf	12	;volatile
  5394                           
  5395                           ;mcc_generated_files/pin_manager.c: 61:     LATB = 0x00;
  5396  020C  018D               	clrf	13	;volatile
  5397                           
  5398                           ;mcc_generated_files/pin_manager.c: 62:     LATC = 0x00;
  5399  020D  018E               	clrf	14	;volatile
  5400  020E                     l1666:
  5401                           
  5402                           ;mcc_generated_files/pin_manager.c: 67:     TRISA = 0x37;
  5403  020E  3037               	movlw	55
  5404  020F  0021               	movlb	1	; select bank1
  5405  0210  008C               	movwf	12	;volatile
  5406  0211                     l1668:
  5407                           
  5408                           ;mcc_generated_files/pin_manager.c: 68:     TRISB = 0x90;
  5409  0211  3090               	movlw	144
  5410  0212  008D               	movwf	13	;volatile
  5411  0213                     l1670:
  5412                           
  5413                           ;mcc_generated_files/pin_manager.c: 69:     TRISC = 0x88;
  5414  0213  3088               	movlw	136
  5415  0214  008E               	movwf	14	;volatile
  5416  0215                     l1672:
  5417                           
  5418                           ;mcc_generated_files/pin_manager.c: 74:     ANSELC = 0x88;
  5419  0215  3088               	movlw	136
  5420  0216  0023               	movlb	3	; select bank3
  5421  0217  008E               	movwf	14	;volatile
  5422                           
  5423                           ;mcc_generated_files/pin_manager.c: 75:     ANSELB = 0x00;
  5424  0218  018D               	clrf	13	;volatile
  5425  0219                     l1674:
  5426                           
  5427                           ;mcc_generated_files/pin_manager.c: 76:     ANSELA = 0x13;
  5428  0219  3013               	movlw	19
  5429  021A  008C               	movwf	12	;volatile
  5430  021B                     l1676:
  5431                           
  5432                           ;mcc_generated_files/pin_manager.c: 81:     WPUB = 0x00;
  5433  021B  0024               	movlb	4	; select bank4
  5434  021C  018D               	clrf	13	;volatile
  5435  021D                     l1678:
  5436                           
  5437                           ;mcc_generated_files/pin_manager.c: 82:     WPUA = 0x00;
  5438  021D  018C               	clrf	12	;volatile
  5439  021E                     l1680:
  5440                           
  5441                           ;mcc_generated_files/pin_manager.c: 83:     WPUC = 0x00;
  5442  021E  018E               	clrf	14	;volatile
  5443  021F                     l1682:
  5444                           
  5445                           ;mcc_generated_files/pin_manager.c: 84:     OPTION_REGbits.nWPUEN = 1;
  5446  021F  0021               	movlb	1	; select bank1
  5447  0220  1795               	bsf	21,7	;volatile
  5448  0221                     l1684:
  5449                           
  5450                           ;mcc_generated_files/pin_manager.c: 89:     ODCONA = 0x00;
  5451  0221  0025               	movlb	5	; select bank5
  5452  0222  018C               	clrf	12	;volatile
  5453  0223                     l1686:
  5454                           
  5455                           ;mcc_generated_files/pin_manager.c: 90:     ODCONB = 0x00;
  5456  0223  018D               	clrf	13	;volatile
  5457  0224                     l1688:
  5458                           
  5459                           ;mcc_generated_files/pin_manager.c: 91:     ODCONC = 0x00;
  5460  0224  018E               	clrf	14	;volatile
  5461  0225                     l1690:
  5462                           
  5463                           ;mcc_generated_files/pin_manager.c: 96:     SLRCONA = 0x37;
  5464  0225  3037               	movlw	55
  5465  0226  0026               	movlb	6	; select bank6
  5466  0227  008C               	movwf	12	;volatile
  5467  0228                     l1692:
  5468                           
  5469                           ;mcc_generated_files/pin_manager.c: 97:     SLRCONB = 0xF0;
  5470  0228  30F0               	movlw	240
  5471  0229  008D               	movwf	13	;volatile
  5472  022A                     l1694:
  5473                           
  5474                           ;mcc_generated_files/pin_manager.c: 98:     SLRCONC = 0xFF;
  5475  022A  30FF               	movlw	255
  5476  022B  008E               	movwf	14	;volatile
  5477  022C                     l1696:
  5478                           
  5479                           ;mcc_generated_files/pin_manager.c: 103:     INLVLA = 0x3F;
  5480  022C  303F               	movlw	63
  5481  022D  0027               	movlb	7	; select bank7
  5482  022E  008C               	movwf	12	;volatile
  5483  022F                     l1698:
  5484                           
  5485                           ;mcc_generated_files/pin_manager.c: 104:     INLVLB = 0xF0;
  5486  022F  30F0               	movlw	240
  5487  0230  008D               	movwf	13	;volatile
  5488  0231                     l1700:
  5489                           
  5490                           ;mcc_generated_files/pin_manager.c: 105:     INLVLC = 0xFF;
  5491  0231  30FF               	movlw	255
  5492  0232  008E               	movwf	14	;volatile
  5493  0233                     l1702:
  5494                           
  5495                           ;mcc_generated_files/pin_manager.c: 114:     INTPPS = 0x0F;
  5496  0233  300F               	movlw	15
  5497  0234  003C               	movlb	28	; select bank28
  5498  0235  0090               	movwf	16	;volatile
  5499  0236                     l1704:
  5500                           
  5501                           ;mcc_generated_files/pin_manager.c: 115:     RXPPS = 0x02;
  5502  0236  3002               	movlw	2
  5503  0237  00A4               	movwf	36	;volatile
  5504  0238                     l1706:
  5505                           
  5506                           ;mcc_generated_files/pin_manager.c: 116:     SSPDATPPS = 0x0C;
  5507  0238  300C               	movlw	12
  5508  0239  00A1               	movwf	33	;volatile
  5509  023A                     l1708:
  5510                           
  5511                           ;mcc_generated_files/pin_manager.c: 117:     RB6PPS = 0x10;
  5512  023A  3010               	movlw	16
  5513  023B  003D               	movlb	29	; select bank29
  5514  023C  009E               	movwf	30	;volatile
  5515  023D                     l1710:
  5516                           
  5517                           ;mcc_generated_files/pin_manager.c: 118:     RB5PPS = 0x11;
  5518  023D  3011               	movlw	17
  5519  023E  009D               	movwf	29	;volatile
  5520  023F                     l1712:
  5521                           
  5522                           ;mcc_generated_files/pin_manager.c: 119:     RC4PPS = 0x12;
  5523  023F  3012               	movlw	18
  5524  0240  00A4               	movwf	36	;volatile
  5525  0241                     l1714:
  5526                           
  5527                           ;mcc_generated_files/pin_manager.c: 120:     SSPCLKPPS = 0x0E;
  5528  0241  300E               	movlw	14
  5529  0242  003C               	movlb	28	; select bank28
  5530  0243  00A0               	movwf	32	;volatile
  5531  0244                     l83:
  5532  0244  0008               	return
  5533  0245                     __end_of_PIN_MANAGER_Initialize:
  5534                           
  5535                           	psect	text13
  5536  0386                     __ptext13:	
  5537 ;; *************** function _OSCILLATOR_Initialize *****************
  5538 ;; Defined at:
  5539 ;;		line 59 in file "mcc_generated_files/mcc.c"
  5540 ;; Parameters:    Size  Location     Type
  5541 ;;		None
  5542 ;; Auto vars:     Size  Location     Type
  5543 ;;		None
  5544 ;; Return value:  Size  Location     Type
  5545 ;;                  1    wreg      void 
  5546 ;; Registers used:
  5547 ;;		wreg, status,2
  5548 ;; Tracked objects:
  5549 ;;		On entry : 0/0
  5550 ;;		On exit  : 0/0
  5551 ;;		Unchanged: 0/0
  5552 ;; Data sizes:     COMMON   BANK0   BANK1   BANK2   BANK3   BANK4   BANK5   BANK6   BANK7   BANK8   BANK9  BANK10  BANK1
      +1  BANK12
  5553 ;;      Params:         0       0       0       0       0       0       0       0       0       0       0       0       
      +0       0
  5554 ;;      Locals:         0       0       0       0       0       0       0       0       0       0       0       0       
      +0       0
  5555 ;;      Temps:          0       0       0       0       0       0       0       0       0       0       0       0       
      +0       0
  5556 ;;      Totals:         0       0       0       0       0       0       0       0       0       0       0       0       
      +0       0
  5557 ;;Total ram usage:        0 bytes
  5558 ;; Hardware stack levels used:    1
  5559 ;; Hardware stack levels required when called:    6
  5560 ;; This function calls:
  5561 ;;		Nothing
  5562 ;; This function is called by:
  5563 ;;		_SYSTEM_Initialize
  5564 ;; This function uses a non-reentrant model
  5565 ;;
  5566                           
  5567                           
  5568                           ;psect for function _OSCILLATOR_Initialize
  5569  0386                     _OSCILLATOR_Initialize:
  5570  0386                     l1716:	
  5571                           ;incstack = 0
  5572                           ; Regs used in _OSCILLATOR_Initialize: [wreg+status,2]
  5573                           
  5574                           
  5575                           ;mcc_generated_files/mcc.c: 62:     OSCCON = 0x78;
  5576  0386  3078               	movlw	120
  5577  0387  0021               	movlb	1	; select bank1
  5578  0388  0099               	movwf	25	;volatile
  5579  0389                     l1718:
  5580                           
  5581                           ;mcc_generated_files/mcc.c: 64:     OSCTUNE = 0x00;
  5582  0389  0198               	clrf	24	;volatile
  5583  038A                     l1720:
  5584                           
  5585                           ;mcc_generated_files/mcc.c: 66:     BORCON = 0x00;
  5586  038A  0022               	movlb	2	; select bank2
  5587  038B  0196               	clrf	22	;volatile
  5588  038C                     l22:
  5589  038C  0008               	return
  5590  038D                     __end_of_OSCILLATOR_Initialize:
  5591                           
  5592                           	psect	text14
  5593  0357                     __ptext14:	
  5594 ;; *************** function _EXT_INT_Initialize *****************
  5595 ;; Defined at:
  5596 ;;		line 59 in file "mcc_generated_files/ext_int.c"
  5597 ;; Parameters:    Size  Location     Type
  5598 ;;		None
  5599 ;; Auto vars:     Size  Location     Type
  5600 ;;		None
  5601 ;; Return value:  Size  Location     Type
  5602 ;;                  1    wreg      void 
  5603 ;; Registers used:
  5604 ;;		wreg, status,2, status,0, pclath, cstack
  5605 ;; Tracked objects:
  5606 ;;		On entry : 0/0
  5607 ;;		On exit  : 0/0
  5608 ;;		Unchanged: 0/0
  5609 ;; Data sizes:     COMMON   BANK0   BANK1   BANK2   BANK3   BANK4   BANK5   BANK6   BANK7   BANK8   BANK9  BANK10  BANK1
      +1  BANK12
  5610 ;;      Params:         0       0       0       0       0       0       0       0       0       0       0       0       
      +0       0
  5611 ;;      Locals:         0       0       0       0       0       0       0       0       0       0       0       0       
      +0       0
  5612 ;;      Temps:          0       0       0       0       0       0       0       0       0       0       0       0       
      +0       0
  5613 ;;      Totals:         0       0       0       0       0       0       0       0       0       0       0       0       
      +0       0
  5614 ;;Total ram usage:        0 bytes
  5615 ;; Hardware stack levels used:    1
  5616 ;; Hardware stack levels required when called:    7
  5617 ;; This function calls:
  5618 ;;		_INT_SetInterruptHandler
  5619 ;; This function is called by:
  5620 ;;		_SYSTEM_Initialize
  5621 ;; This function uses a non-reentrant model
  5622 ;;
  5623                           
  5624                           
  5625                           ;psect for function _EXT_INT_Initialize
  5626  0357                     _EXT_INT_Initialize:
  5627  0357                     l2138:	
  5628                           ;incstack = 0
  5629                           ; Regs used in _EXT_INT_Initialize: [wreg+status,2+status,0+pclath+cstack]
  5630                           
  5631                           
  5632                           ;mcc_generated_files/ext_int.c: 64:     (INTCONbits.INTF = 0);
  5633  0357  108B               	bcf	11,1	;volatile
  5634                           
  5635                           ;mcc_generated_files/ext_int.c: 65:     (OPTION_REGbits.INTEDG = 0);
  5636  0358  0021               	movlb	1	; select bank1
  5637  0359  1315               	bcf	21,6	;volatile
  5638  035A                     l2140:
  5639                           
  5640                           ;mcc_generated_files/ext_int.c: 67:     INT_SetInterruptHandler(INT_DefaultInterruptHand
      +                          ler);
  5641  035A  30AE               	movlw	low _INT_DefaultInterruptHandler
  5642  035B  0020               	movlb	0	; select bank0
  5643  035C  00A0               	movwf	INT_SetInterruptHandler@InterruptHandler
  5644  035D  3003               	movlw	high _INT_DefaultInterruptHandler
  5645  035E  00A1               	movwf	INT_SetInterruptHandler@InterruptHandler+1
  5646  035F  3183  238D  3183   	fcall	_INT_SetInterruptHandler
  5647  0362                     l2142:
  5648                           
  5649                           ;mcc_generated_files/ext_int.c: 68:     (INTCONbits.INTE = 1);
  5650  0362  160B               	bsf	11,4	;volatile
  5651  0363                     l284:
  5652  0363  0008               	return
  5653  0364                     __end_of_EXT_INT_Initialize:
  5654                           
  5655                           	psect	text15
  5656  038D                     __ptext15:	
  5657 ;; *************** function _INT_SetInterruptHandler *****************
  5658 ;; Defined at:
  5659 ;;		line 50 in file "mcc_generated_files/ext_int.c"
  5660 ;; Parameters:    Size  Location     Type
  5661 ;;  InterruptHan    2    0[BANK0 ] PTR FTN()void 
  5662 ;;		 -> ISR(1), INT_DefaultInterruptHandler(1), 
  5663 ;; Auto vars:     Size  Location     Type
  5664 ;;		None
  5665 ;; Return value:  Size  Location     Type
  5666 ;;                  1    wreg      void 
  5667 ;; Registers used:
  5668 ;;		wreg
  5669 ;; Tracked objects:
  5670 ;;		On entry : 0/0
  5671 ;;		On exit  : 0/0
  5672 ;;		Unchanged: 0/0
  5673 ;; Data sizes:     COMMON   BANK0   BANK1   BANK2   BANK3   BANK4   BANK5   BANK6   BANK7   BANK8   BANK9  BANK10  BANK1
      +1  BANK12
  5674 ;;      Params:         0       2       0       0       0       0       0       0       0       0       0       0       
      +0       0
  5675 ;;      Locals:         0       0       0       0       0       0       0       0       0       0       0       0       
      +0       0
  5676 ;;      Temps:          0       0       0       0       0       0       0       0       0       0       0       0       
      +0       0
  5677 ;;      Totals:         0       2       0       0       0       0       0       0       0       0       0       0       
      +0       0
  5678 ;;Total ram usage:        2 bytes
  5679 ;; Hardware stack levels used:    1
  5680 ;; Hardware stack levels required when called:    6
  5681 ;; This function calls:
  5682 ;;		Nothing
  5683 ;; This function is called by:
  5684 ;;		_EXT_INT_Initialize
  5685 ;;		_main
  5686 ;; This function uses a non-reentrant model
  5687 ;;
  5688                           
  5689                           
  5690                           ;psect for function _INT_SetInterruptHandler
  5691  038D                     _INT_SetInterruptHandler:
  5692  038D                     l2128:	
  5693                           ;incstack = 0
  5694                           ; Regs used in _INT_SetInterruptHandler: [wreg]
  5695                           
  5696                           
  5697                           ;mcc_generated_files/ext_int.c: 51:     INT_InterruptHandler = InterruptHandler;
  5698  038D  0020               	movlb	0	; select bank0
  5699  038E  0821               	movf	INT_SetInterruptHandler@InterruptHandler+1,w
  5700  038F  00F6               	movwf	_INT_InterruptHandler+1
  5701  0390  0820               	movf	INT_SetInterruptHandler@InterruptHandler,w
  5702  0391  00F5               	movwf	_INT_InterruptHandler
  5703  0392                     l278:
  5704  0392  0008               	return
  5705  0393                     __end_of_INT_SetInterruptHandler:
  5706                           
  5707                           	psect	text16
  5708  027E                     __ptext16:	
  5709 ;; *************** function _EUSART_Initialize *****************
  5710 ;; Defined at:
  5711 ;;		line 66 in file "mcc_generated_files/eusart.c"
  5712 ;; Parameters:    Size  Location     Type
  5713 ;;		None
  5714 ;; Auto vars:     Size  Location     Type
  5715 ;;		None
  5716 ;; Return value:  Size  Location     Type
  5717 ;;                  1    wreg      void 
  5718 ;; Registers used:
  5719 ;;		wreg, status,2, status,0, pclath, cstack
  5720 ;; Tracked objects:
  5721 ;;		On entry : 0/0
  5722 ;;		On exit  : 0/0
  5723 ;;		Unchanged: 0/0
  5724 ;; Data sizes:     COMMON   BANK0   BANK1   BANK2   BANK3   BANK4   BANK5   BANK6   BANK7   BANK8   BANK9  BANK10  BANK1
      +1  BANK12
  5725 ;;      Params:         0       0       0       0       0       0       0       0       0       0       0       0       
      +0       0
  5726 ;;      Locals:         0       0       0       0       0       0       0       0       0       0       0       0       
      +0       0
  5727 ;;      Temps:          0       0       0       0       0       0       0       0       0       0       0       0       
      +0       0
  5728 ;;      Totals:         0       0       0       0       0       0       0       0       0       0       0       0       
      +0       0
  5729 ;;Total ram usage:        0 bytes
  5730 ;; Hardware stack levels used:    1
  5731 ;; Hardware stack levels required when called:    7
  5732 ;; This function calls:
  5733 ;;		_EUSART_SetErrorHandler
  5734 ;;		_EUSART_SetFramingErrorHandler
  5735 ;;		_EUSART_SetOverrunErrorHandler
  5736 ;; This function is called by:
  5737 ;;		_SYSTEM_Initialize
  5738 ;; This function uses a non-reentrant model
  5739 ;;
  5740                           
  5741                           
  5742                           ;psect for function _EUSART_Initialize
  5743  027E                     _EUSART_Initialize:
  5744  027E                     l2144:	
  5745                           ;incstack = 0
  5746                           ; Regs used in _EUSART_Initialize: [wreg+status,2+status,0+pclath+cstack]
  5747                           
  5748                           
  5749                           ;mcc_generated_files/eusart.c: 71:     BAUD1CON = 0x08;
  5750  027E  3008               	movlw	8
  5751  027F  0023               	movlb	3	; select bank3
  5752  0280  009F               	movwf	31	;volatile
  5753                           
  5754                           ;mcc_generated_files/eusart.c: 74:     RC1STA = 0x90;
  5755  0281  3090               	movlw	144
  5756  0282  009D               	movwf	29	;volatile
  5757                           
  5758                           ;mcc_generated_files/eusart.c: 77:     TX1STA = 0x24;
  5759  0283  3024               	movlw	36
  5760  0284  009E               	movwf	30	;volatile
  5761                           
  5762                           ;mcc_generated_files/eusart.c: 80:     SPBRGL = 0xA0;
  5763  0285  30A0               	movlw	160
  5764  0286  009B               	movwf	27	;volatile
  5765                           
  5766                           ;mcc_generated_files/eusart.c: 83:     SPBRGH = 0x01;
  5767  0287  3001               	movlw	1
  5768  0288  009C               	movwf	28	;volatile
  5769  0289                     l2146:
  5770                           
  5771                           ;mcc_generated_files/eusart.c: 86:     EUSART_SetFramingErrorHandler(EUSART_DefaultFrami
      +                          ngErrorHandler);
  5772  0289  3000               	movlw	0
  5773  028A  0020               	movlb	0	; select bank0
  5774  028B  00A0               	movwf	EUSART_SetFramingErrorHandler@interruptHandler
  5775  028C  3000               	movlw	0
  5776  028D  00A1               	movwf	EUSART_SetFramingErrorHandler@interruptHandler+1
  5777  028E  3183  2399  3182   	fcall	_EUSART_SetFramingErrorHandler
  5778  0291                     l2148:
  5779                           
  5780                           ;mcc_generated_files/eusart.c: 87:     EUSART_SetOverrunErrorHandler(EUSART_DefaultOverr
      +                          unErrorHandler);
  5781  0291  3000               	movlw	0
  5782  0292  0020               	movlb	0	; select bank0
  5783  0293  00A0               	movwf	EUSART_SetOverrunErrorHandler@interruptHandler
  5784  0294  3000               	movlw	0
  5785  0295  00A1               	movwf	EUSART_SetOverrunErrorHandler@interruptHandler+1
  5786  0296  3183  2393  3182   	fcall	_EUSART_SetOverrunErrorHandler
  5787  0299                     l2150:
  5788                           
  5789                           ;mcc_generated_files/eusart.c: 88:     EUSART_SetErrorHandler(EUSART_DefaultErrorHandler
      +                          );
  5790  0299  3000               	movlw	0
  5791  029A  0020               	movlb	0	; select bank0
  5792  029B  00A0               	movwf	EUSART_SetErrorHandler@interruptHandler
  5793  029C  3000               	movlw	0
  5794  029D  00A1               	movwf	EUSART_SetErrorHandler@interruptHandler+1
  5795  029E  3183  239F  3182   	fcall	_EUSART_SetErrorHandler
  5796  02A1                     l2152:
  5797                           
  5798                           ;mcc_generated_files/eusart.c: 90:     eusartRxLastError.status = 0;
  5799  02A1  01F8               	clrf	_eusartRxLastError	;volatile
  5800  02A2                     l129:
  5801  02A2  0008               	return
  5802  02A3                     __end_of_EUSART_Initialize:
  5803                           
  5804                           	psect	text17
  5805  0393                     __ptext17:	
  5806 ;; *************** function _EUSART_SetOverrunErrorHandler *****************
  5807 ;; Defined at:
  5808 ;;		line 170 in file "mcc_generated_files/eusart.c"
  5809 ;; Parameters:    Size  Location     Type
  5810 ;;  interruptHan    2    0[BANK0 ] PTR FTN()void 
  5811 ;;		 -> EUSART_DefaultOverrunErrorHandler(1), 
  5812 ;; Auto vars:     Size  Location     Type
  5813 ;;		None
  5814 ;; Return value:  Size  Location     Type
  5815 ;;                  1    wreg      void 
  5816 ;; Registers used:
  5817 ;;		wreg
  5818 ;; Tracked objects:
  5819 ;;		On entry : 0/0
  5820 ;;		On exit  : 0/0
  5821 ;;		Unchanged: 0/0
  5822 ;; Data sizes:     COMMON   BANK0   BANK1   BANK2   BANK3   BANK4   BANK5   BANK6   BANK7   BANK8   BANK9  BANK10  BANK1
      +1  BANK12
  5823 ;;      Params:         0       2       0       0       0       0       0       0       0       0       0       0       
      +0       0
  5824 ;;      Locals:         0       0       0       0       0       0       0       0       0       0       0       0       
      +0       0
  5825 ;;      Temps:          0       0       0       0       0       0       0       0       0       0       0       0       
      +0       0
  5826 ;;      Totals:         0       2       0       0       0       0       0       0       0       0       0       0       
      +0       0
  5827 ;;Total ram usage:        2 bytes
  5828 ;; Hardware stack levels used:    1
  5829 ;; Hardware stack levels required when called:    6
  5830 ;; This function calls:
  5831 ;;		Nothing
  5832 ;; This function is called by:
  5833 ;;		_EUSART_Initialize
  5834 ;; This function uses a non-reentrant model
  5835 ;;
  5836                           
  5837                           
  5838                           ;psect for function _EUSART_SetOverrunErrorHandler
  5839  0393                     _EUSART_SetOverrunErrorHandler:
  5840  0393                     l2124:	
  5841                           ;incstack = 0
  5842                           ; Regs used in _EUSART_SetOverrunErrorHandler: [wreg]
  5843                           
  5844                           
  5845                           ;mcc_generated_files/eusart.c: 171:     EUSART_OverrunErrorHandler = interruptHandler;
  5846  0393  0020               	movlb	0	; select bank0
  5847  0394  0821               	movf	EUSART_SetOverrunErrorHandler@interruptHandler+1,w
  5848  0395  00DD               	movwf	_EUSART_OverrunErrorHandler+1
  5849  0396  0820               	movf	EUSART_SetOverrunErrorHandler@interruptHandler,w
  5850  0397  00DC               	movwf	_EUSART_OverrunErrorHandler
  5851  0398                     l177:
  5852  0398  0008               	return
  5853  0399                     __end_of_EUSART_SetOverrunErrorHandler:
  5854                           
  5855                           	psect	text18
  5856  0399                     __ptext18:	
  5857 ;; *************** function _EUSART_SetFramingErrorHandler *****************
  5858 ;; Defined at:
  5859 ;;		line 166 in file "mcc_generated_files/eusart.c"
  5860 ;; Parameters:    Size  Location     Type
  5861 ;;  interruptHan    2    0[BANK0 ] PTR FTN()void 
  5862 ;;		 -> EUSART_DefaultFramingErrorHandler(1), 
  5863 ;; Auto vars:     Size  Location     Type
  5864 ;;		None
  5865 ;; Return value:  Size  Location     Type
  5866 ;;                  1    wreg      void 
  5867 ;; Registers used:
  5868 ;;		wreg
  5869 ;; Tracked objects:
  5870 ;;		On entry : 0/0
  5871 ;;		On exit  : 0/0
  5872 ;;		Unchanged: 0/0
  5873 ;; Data sizes:     COMMON   BANK0   BANK1   BANK2   BANK3   BANK4   BANK5   BANK6   BANK7   BANK8   BANK9  BANK10  BANK1
      +1  BANK12
  5874 ;;      Params:         0       2       0       0       0       0       0       0       0       0       0       0       
      +0       0
  5875 ;;      Locals:         0       0       0       0       0       0       0       0       0       0       0       0       
      +0       0
  5876 ;;      Temps:          0       0       0       0       0       0       0       0       0       0       0       0       
      +0       0
  5877 ;;      Totals:         0       2       0       0       0       0       0       0       0       0       0       0       
      +0       0
  5878 ;;Total ram usage:        2 bytes
  5879 ;; Hardware stack levels used:    1
  5880 ;; Hardware stack levels required when called:    6
  5881 ;; This function calls:
  5882 ;;		Nothing
  5883 ;; This function is called by:
  5884 ;;		_EUSART_Initialize
  5885 ;; This function uses a non-reentrant model
  5886 ;;
  5887                           
  5888                           
  5889                           ;psect for function _EUSART_SetFramingErrorHandler
  5890  0399                     _EUSART_SetFramingErrorHandler:
  5891  0399                     l2122:	
  5892                           ;incstack = 0
  5893                           ; Regs used in _EUSART_SetFramingErrorHandler: [wreg]
  5894                           
  5895                           
  5896                           ;mcc_generated_files/eusart.c: 167:     EUSART_FramingErrorHandler = interruptHandler;
  5897  0399  0020               	movlb	0	; select bank0
  5898  039A  0821               	movf	EUSART_SetFramingErrorHandler@interruptHandler+1,w
  5899  039B  00DF               	movwf	_EUSART_FramingErrorHandler+1
  5900  039C  0820               	movf	EUSART_SetFramingErrorHandler@interruptHandler,w
  5901  039D  00DE               	movwf	_EUSART_FramingErrorHandler
  5902  039E                     l174:
  5903  039E  0008               	return
  5904  039F                     __end_of_EUSART_SetFramingErrorHandler:
  5905                           
  5906                           	psect	text19
  5907  039F                     __ptext19:	
  5908 ;; *************** function _EUSART_SetErrorHandler *****************
  5909 ;; Defined at:
  5910 ;;		line 174 in file "mcc_generated_files/eusart.c"
  5911 ;; Parameters:    Size  Location     Type
  5912 ;;  interruptHan    2    0[BANK0 ] PTR FTN()void 
  5913 ;;		 -> EUSART_DefaultErrorHandler(1), 
  5914 ;; Auto vars:     Size  Location     Type
  5915 ;;		None
  5916 ;; Return value:  Size  Location     Type
  5917 ;;                  1    wreg      void 
  5918 ;; Registers used:
  5919 ;;		wreg
  5920 ;; Tracked objects:
  5921 ;;		On entry : 0/0
  5922 ;;		On exit  : 0/0
  5923 ;;		Unchanged: 0/0
  5924 ;; Data sizes:     COMMON   BANK0   BANK1   BANK2   BANK3   BANK4   BANK5   BANK6   BANK7   BANK8   BANK9  BANK10  BANK1
      +1  BANK12
  5925 ;;      Params:         0       2       0       0       0       0       0       0       0       0       0       0       
      +0       0
  5926 ;;      Locals:         0       0       0       0       0       0       0       0       0       0       0       0       
      +0       0
  5927 ;;      Temps:          0       0       0       0       0       0       0       0       0       0       0       0       
      +0       0
  5928 ;;      Totals:         0       2       0       0       0       0       0       0       0       0       0       0       
      +0       0
  5929 ;;Total ram usage:        2 bytes
  5930 ;; Hardware stack levels used:    1
  5931 ;; Hardware stack levels required when called:    6
  5932 ;; This function calls:
  5933 ;;		Nothing
  5934 ;; This function is called by:
  5935 ;;		_EUSART_Initialize
  5936 ;; This function uses a non-reentrant model
  5937 ;;
  5938                           
  5939                           
  5940                           ;psect for function _EUSART_SetErrorHandler
  5941  039F                     _EUSART_SetErrorHandler:
  5942  039F                     l2126:	
  5943                           ;incstack = 0
  5944                           ; Regs used in _EUSART_SetErrorHandler: [wreg]
  5945                           
  5946                           
  5947                           ;mcc_generated_files/eusart.c: 175:     EUSART_ErrorHandler = interruptHandler;
  5948  039F  0020               	movlb	0	; select bank0
  5949  03A0  0821               	movf	EUSART_SetErrorHandler@interruptHandler+1,w
  5950  03A1  00DB               	movwf	_EUSART_ErrorHandler+1
  5951  03A2  0820               	movf	EUSART_SetErrorHandler@interruptHandler,w
  5952  03A3  00DA               	movwf	_EUSART_ErrorHandler
  5953  03A4                     l180:
  5954  03A4  0008               	return
  5955  03A5                     __end_of_EUSART_SetErrorHandler:
  5956                           
  5957                           	psect	text20
  5958  0175                     __ptext20:	
  5959 ;; *************** function _SPI_Open *****************
  5960 ;; Defined at:
  5961 ;;		line 77 in file "mcc_generated_files/spi.c"
  5962 ;; Parameters:    Size  Location     Type
  5963 ;;  spiUniqueCon    1    wreg     enum E355
  5964 ;; Auto vars:     Size  Location     Type
  5965 ;;  spiUniqueCon    1    3[BANK0 ] enum E355
  5966 ;; Return value:  Size  Location     Type
  5967 ;;                  1    wreg      _Bool 
  5968 ;; Registers used:
  5969 ;;		wreg, fsr0l, fsr0h, status,2, status,0, pclath
  5970 ;; Tracked objects:
  5971 ;;		On entry : 0/0
  5972 ;;		On exit  : 0/0
  5973 ;;		Unchanged: 0/0
  5974 ;; Data sizes:     COMMON   BANK0   BANK1   BANK2   BANK3   BANK4   BANK5   BANK6   BANK7   BANK8   BANK9  BANK10  BANK1
      +1  BANK12
  5975 ;;      Params:         0       0       0       0       0       0       0       0       0       0       0       0       
      +0       0
  5976 ;;      Locals:         0       1       0       0       0       0       0       0       0       0       0       0       
      +0       0
  5977 ;;      Temps:          0       3       0       0       0       0       0       0       0       0       0       0       
      +0       0
  5978 ;;      Totals:         0       4       0       0       0       0       0       0       0       0       0       0       
      +0       0
  5979 ;;Total ram usage:        4 bytes
  5980 ;; Hardware stack levels used:    1
  5981 ;; Hardware stack levels required when called:    6
  5982 ;; This function calls:
  5983 ;;		Nothing
  5984 ;; This function is called by:
  5985 ;;		_main
  5986 ;; This function uses a non-reentrant model
  5987 ;;
  5988                           
  5989                           
  5990                           ;psect for function _SPI_Open
  5991  0175                     _SPI_Open:
  5992                           
  5993                           ;incstack = 0
  5994                           ; Regs used in _SPI_Open: [wreg-fsr0h+status,2+status,0+pclath]
  5995                           ;SPI_Open@spiUniqueConfiguration stored from wreg
  5996  0175  0020               	movlb	0	; select bank0
  5997  0176  00A3               	movwf	SPI_Open@spiUniqueConfiguration
  5998  0177                     l2170:
  5999                           
  6000                           ;mcc_generated_files/spi.c: 77: _Bool SPI_Open(spi_modes_t spiUniqueConfiguration);mcc_g
      +                          enerated_files/spi.c: 78: {;mcc_generated_files/spi.c: 79:     if(!SSP1CON1bits.SSPEN)
  6001  0177  0024               	movlb	4	; select bank4
  6002  0178  1A95               	btfsc	21,5	;volatile
  6003  0179  297B               	goto	u541
  6004  017A  297C               	goto	u540
  6005  017B                     u541:
  6006  017B  29CD               	goto	l213
  6007  017C                     u540:
  6008  017C                     l2172:
  6009                           
  6010                           ;mcc_generated_files/spi.c: 80:     {;mcc_generated_files/spi.c: 81:         SSP1STAT = 
      +                          spi_configuration[spiUniqueConfiguration].stat;
  6011  017C  0020               	movlb	0	; select bank0
  6012  017D  0823               	movf	SPI_Open@spiUniqueConfiguration,w
  6013  017E  00A0               	movwf	??_SPI_Open
  6014  017F  01A1               	clrf	??_SPI_Open+1
  6015  0180  35A0               	lslf	??_SPI_Open,f
  6016  0181  0DA1               	rlf	??_SPI_Open+1,f
  6017  0182  35A0               	lslf	??_SPI_Open,f
  6018  0183  0DA1               	rlf	??_SPI_Open+1,f
  6019  0184  30AB               	movlw	low ((_spi_configuration+1)| (0+32768))
  6020  0185  0720               	addwf	??_SPI_Open,w
  6021  0186  0084               	movwf	4
  6022  0187  3083               	movlw	high ((_spi_configuration+1)| (0+32768))
  6023  0188  3D21               	addwfc	??_SPI_Open+1,w
  6024  0189  0085               	movwf	5
  6025  018A  0800               	movf	0,w	;code access
  6026  018B  0024               	movlb	4	; select bank4
  6027  018C  0094               	movwf	20	;volatile
  6028                           
  6029                           ;mcc_generated_files/spi.c: 82:         SSP1CON1 = spi_configuration[spiUniqueConfigurat
      +                          ion].con1;
  6030  018D  0020               	movlb	0	; select bank0
  6031  018E  0823               	movf	SPI_Open@spiUniqueConfiguration,w
  6032  018F  00A0               	movwf	??_SPI_Open
  6033  0190  01A1               	clrf	??_SPI_Open+1
  6034  0191  35A0               	lslf	??_SPI_Open,f
  6035  0192  0DA1               	rlf	??_SPI_Open+1,f
  6036  0193  35A0               	lslf	??_SPI_Open,f
  6037  0194  0DA1               	rlf	??_SPI_Open+1,f
  6038  0195  30AA               	movlw	low (_spi_configuration| (0+32768))
  6039  0196  0720               	addwf	??_SPI_Open,w
  6040  0197  0084               	movwf	4
  6041  0198  3083               	movlw	high (_spi_configuration| (0+32768))
  6042  0199  3D21               	addwfc	??_SPI_Open+1,w
  6043  019A  0085               	movwf	5
  6044  019B  0800               	movf	0,w	;code access
  6045  019C  0024               	movlb	4	; select bank4
  6046  019D  0095               	movwf	21	;volatile
  6047  019E                     l2174:
  6048                           
  6049                           ;mcc_generated_files/spi.c: 83:         SSP1CON2 = 0x00;
  6050  019E  0196               	clrf	22	;volatile
  6051  019F                     l2176:
  6052                           
  6053                           ;mcc_generated_files/spi.c: 84:         SSP1ADD = spi_configuration[spiUniqueConfigurati
      +                          on].add;
  6054  019F  0020               	movlb	0	; select bank0
  6055  01A0  0823               	movf	SPI_Open@spiUniqueConfiguration,w
  6056  01A1  00A0               	movwf	??_SPI_Open
  6057  01A2  01A1               	clrf	??_SPI_Open+1
  6058  01A3  35A0               	lslf	??_SPI_Open,f
  6059  01A4  0DA1               	rlf	??_SPI_Open+1,f
  6060  01A5  35A0               	lslf	??_SPI_Open,f
  6061  01A6  0DA1               	rlf	??_SPI_Open+1,f
  6062  01A7  30AC               	movlw	low ((_spi_configuration+2)| (0+32768))
  6063  01A8  0720               	addwf	??_SPI_Open,w
  6064  01A9  0084               	movwf	4
  6065  01AA  3083               	movlw	high ((_spi_configuration+2)| (0+32768))
  6066  01AB  3D21               	addwfc	??_SPI_Open+1,w
  6067  01AC  0085               	movwf	5
  6068  01AD  0800               	movf	0,w	;code access
  6069  01AE  0024               	movlb	4	; select bank4
  6070  01AF  0092               	movwf	18	;volatile
  6071  01B0                     l2178:
  6072                           
  6073                           ;mcc_generated_files/spi.c: 85:         TRISBbits.TRISB6 = spi_configuration[spiUniqueCo
      +                          nfiguration].operation;
  6074  01B0  0020               	movlb	0	; select bank0
  6075  01B1  0823               	movf	SPI_Open@spiUniqueConfiguration,w
  6076  01B2  00A0               	movwf	??_SPI_Open
  6077  01B3  01A1               	clrf	??_SPI_Open+1
  6078  01B4  35A0               	lslf	??_SPI_Open,f
  6079  01B5  0DA1               	rlf	??_SPI_Open+1,f
  6080  01B6  35A0               	lslf	??_SPI_Open,f
  6081  01B7  0DA1               	rlf	??_SPI_Open+1,f
  6082  01B8  30AD               	movlw	low ((_spi_configuration+3)| (0+32768))
  6083  01B9  0720               	addwf	??_SPI_Open,w
  6084  01BA  0084               	movwf	4
  6085  01BB  3083               	movlw	high ((_spi_configuration+3)| (0+32768))
  6086  01BC  3D21               	addwfc	??_SPI_Open+1,w
  6087  01BD  0085               	movwf	5
  6088  01BE  0800               	movf	0,w	;code access
  6089  01BF  00A2               	movwf	??_SPI_Open+2
  6090  01C0  0EA2               	swapf	??_SPI_Open+2,f
  6091  01C1  0DA2               	rlf	??_SPI_Open+2,f
  6092  01C2  0DA2               	rlf	??_SPI_Open+2,f
  6093  01C3  0021               	movlb	1	; select bank1
  6094  01C4  080D               	movf	13,w	;volatile
  6095  01C5  0020               	movlb	0	; select bank0
  6096  01C6  0622               	xorwf	??_SPI_Open+2,w
  6097  01C7  39BF               	andlw	-65
  6098  01C8  0622               	xorwf	??_SPI_Open+2,w
  6099  01C9  0021               	movlb	1	; select bank1
  6100  01CA  008D               	movwf	13	;volatile
  6101  01CB                     l2180:
  6102                           
  6103                           ;mcc_generated_files/spi.c: 86:         SSP1CON1bits.SSPEN = 1;
  6104  01CB  0024               	movlb	4	; select bank4
  6105  01CC  1695               	bsf	21,5	;volatile
  6106  01CD                     l213:
  6107  01CD  0008               	return
  6108  01CE                     __end_of_SPI_Open:
  6109                           
  6110                           	psect	intentry
  6111  0004                     __pintentry:	
  6112 ;; *************** function _INTERRUPT_InterruptManager *****************
  6113 ;; Defined at:
  6114 ;;		line 52 in file "mcc_generated_files/interrupt_manager.c"
  6115 ;; Parameters:    Size  Location     Type
  6116 ;;		None
  6117 ;; Auto vars:     Size  Location     Type
  6118 ;;		None
  6119 ;; Return value:  Size  Location     Type
  6120 ;;                  1    wreg      void 
  6121 ;; Registers used:
  6122 ;;		wreg, status,2, status,0, pclath, cstack
  6123 ;; Tracked objects:
  6124 ;;		On entry : 0/0
  6125 ;;		On exit  : 0/0
  6126 ;;		Unchanged: 0/0
  6127 ;; Data sizes:     COMMON   BANK0   BANK1   BANK2   BANK3   BANK4   BANK5   BANK6   BANK7   BANK8   BANK9  BANK10  BANK1
      +1  BANK12
  6128 ;;      Params:         0       0       0       0       0       0       0       0       0       0       0       0       
      +0       0
  6129 ;;      Locals:         0       0       0       0       0       0       0       0       0       0       0       0       
      +0       0
  6130 ;;      Temps:          0       0       0       0       0       0       0       0       0       0       0       0       
      +0       0
  6131 ;;      Totals:         0       0       0       0       0       0       0       0       0       0       0       0       
      +0       0
  6132 ;;Total ram usage:        0 bytes
  6133 ;; Hardware stack levels used:    1
  6134 ;; Hardware stack levels required when called:    5
  6135 ;; This function calls:
  6136 ;;		_INT_ISR
  6137 ;; This function is called by:
  6138 ;;		Interrupt level 1
  6139 ;; This function uses a non-reentrant model
  6140 ;;
  6141                           
  6142  0004                     _INTERRUPT_InterruptManager:
  6143                           
  6144                           ;incstack = 0
  6145  0004  147E               	bsf	int$flags,0	;set compiler interrupt flag (level 1)
  6146                           
  6147                           ; Regs used in _INTERRUPT_InterruptManager: [wreg+status,2+status,0+pclath+cstack]
  6148  0005  3180               	pagesel	$
  6149  0006                     i1l1874:
  6150                           
  6151                           ;mcc_generated_files/interrupt_manager.c: 55:     if(INTCONbits.INTE == 1 && INTCONbits.
      +                          INTF == 1)
  6152  0006  1E0B               	btfss	11,4	;volatile
  6153  0007  2809               	goto	u40_21
  6154  0008  280A               	goto	u40_20
  6155  0009                     u40_21:
  6156  0009  2811               	goto	i1l260
  6157  000A                     u40_20:
  6158  000A                     i1l1876:
  6159  000A  1C8B               	btfss	11,1	;volatile
  6160  000B  280D               	goto	u41_21
  6161  000C  280E               	goto	u41_20
  6162  000D                     u41_21:
  6163  000D  2811               	goto	i1l260
  6164  000E                     u41_20:
  6165  000E                     i1l1878:
  6166                           
  6167                           ;mcc_generated_files/interrupt_manager.c: 56:     {;mcc_generated_files/interrupt_manage
      +                          r.c: 57:         INT_ISR();
  6168  000E  3183  23A5  3180   	fcall	_INT_ISR
  6169  0011                     i1l260:	
  6170                           ;mcc_generated_files/interrupt_manager.c: 58:     }
  6171                           
  6172  0011  107E               	bcf	int$flags,0	;clear compiler interrupt flag (level 1)
  6173  0012  0009               	retfie
  6174  0013                     __end_of_INTERRUPT_InterruptManager:
  6175                           
  6176                           	psect	text22
  6177  03A5                     __ptext22:	
  6178 ;; *************** function _INT_ISR *****************
  6179 ;; Defined at:
  6180 ;;		line 32 in file "mcc_generated_files/ext_int.c"
  6181 ;; Parameters:    Size  Location     Type
  6182 ;;		None
  6183 ;; Auto vars:     Size  Location     Type
  6184 ;;		None
  6185 ;; Return value:  Size  Location     Type
  6186 ;;                  1    wreg      void 
  6187 ;; Registers used:
  6188 ;;		wreg, status,2, status,0, pclath, cstack
  6189 ;; Tracked objects:
  6190 ;;		On entry : 0/0
  6191 ;;		On exit  : 0/0
  6192 ;;		Unchanged: 0/0
  6193 ;; Data sizes:     COMMON   BANK0   BANK1   BANK2   BANK3   BANK4   BANK5   BANK6   BANK7   BANK8   BANK9  BANK10  BANK1
      +1  BANK12
  6194 ;;      Params:         0       0       0       0       0       0       0       0       0       0       0       0       
      +0       0
  6195 ;;      Locals:         0       0       0       0       0       0       0       0       0       0       0       0       
      +0       0
  6196 ;;      Temps:          0       0       0       0       0       0       0       0       0       0       0       0       
      +0       0
  6197 ;;      Totals:         0       0       0       0       0       0       0       0       0       0       0       0       
      +0       0
  6198 ;;Total ram usage:        0 bytes
  6199 ;; Hardware stack levels used:    1
  6200 ;; Hardware stack levels required when called:    4
  6201 ;; This function calls:
  6202 ;;		_INT_CallBack
  6203 ;; This function is called by:
  6204 ;;		_INTERRUPT_InterruptManager
  6205 ;; This function uses a non-reentrant model
  6206 ;;
  6207                           
  6208                           
  6209                           ;psect for function _INT_ISR
  6210  03A5                     _INT_ISR:
  6211  03A5                     i1l1772:	
  6212                           ;incstack = 0
  6213                           ; Regs used in _INT_ISR: [wreg+status,2+status,0+pclath+cstack]
  6214                           
  6215                           
  6216                           ;mcc_generated_files/ext_int.c: 34:     (INTCONbits.INTF = 0);
  6217  03A5  108B               	bcf	11,1	;volatile
  6218  03A6                     i1l1774:
  6219                           
  6220                           ;mcc_generated_files/ext_int.c: 37:     INT_CallBack();
  6221  03A6  3183  2371  3183   	fcall	_INT_CallBack
  6222  03A9                     i1l271:
  6223  03A9  0008               	return
  6224  03AA                     __end_of_INT_ISR:
  6225                           
  6226                           	psect	text23
  6227  0371                     __ptext23:	
  6228 ;; *************** function _INT_CallBack *****************
  6229 ;; Defined at:
  6230 ;;		line 41 in file "mcc_generated_files/ext_int.c"
  6231 ;; Parameters:    Size  Location     Type
  6232 ;;		None
  6233 ;; Auto vars:     Size  Location     Type
  6234 ;;		None
  6235 ;; Return value:  Size  Location     Type
  6236 ;;                  1    wreg      void 
  6237 ;; Registers used:
  6238 ;;		wreg, status,2, status,0, pclath, cstack
  6239 ;; Tracked objects:
  6240 ;;		On entry : 0/0
  6241 ;;		On exit  : 0/0
  6242 ;;		Unchanged: 0/0
  6243 ;; Data sizes:     COMMON   BANK0   BANK1   BANK2   BANK3   BANK4   BANK5   BANK6   BANK7   BANK8   BANK9  BANK10  BANK1
      +1  BANK12
  6244 ;;      Params:         0       0       0       0       0       0       0       0       0       0       0       0       
      +0       0
  6245 ;;      Locals:         0       0       0       0       0       0       0       0       0       0       0       0       
      +0       0
  6246 ;;      Temps:          0       0       0       0       0       0       0       0       0       0       0       0       
      +0       0
  6247 ;;      Totals:         0       0       0       0       0       0       0       0       0       0       0       0       
      +0       0
  6248 ;;Total ram usage:        0 bytes
  6249 ;; Hardware stack levels used:    1
  6250 ;; Hardware stack levels required when called:    3
  6251 ;; This function calls:
  6252 ;;		Absolute function
  6253 ;;		_INT_DefaultInterruptHandler
  6254 ;;		_ISR
  6255 ;; This function is called by:
  6256 ;;		_INT_ISR
  6257 ;; This function uses a non-reentrant model
  6258 ;;
  6259                           
  6260                           
  6261                           ;psect for function _INT_CallBack
  6262  0371                     _INT_CallBack:
  6263  0371                     i1l1738:	
  6264                           ;incstack = 0
  6265                           ; Regs used in _INT_CallBack: [wreg+status,2+status,0+pclath+cstack]
  6266                           
  6267                           
  6268                           ;mcc_generated_files/ext_int.c: 44:     if(INT_InterruptHandler)
  6269  0371  0875               	movf	_INT_InterruptHandler,w
  6270  0372  0476               	iorwf	_INT_InterruptHandler+1,w
  6271  0373  1903               	btfsc	3,2
  6272  0374  2B76               	goto	u36_21
  6273  0375  2B77               	goto	u36_20
  6274  0376                     u36_21:
  6275  0376  2B7C               	goto	i1l275
  6276  0377                     u36_20:
  6277  0377                     i1l1740:
  6278                           
  6279                           ;mcc_generated_files/ext_int.c: 45:     {;mcc_generated_files/ext_int.c: 46:         INT
      +                          _InterruptHandler();
  6280  0377  0876               	movf	_INT_InterruptHandler+1,w
  6281  0378  008A               	movwf	10
  6282  0379  0875               	movf	_INT_InterruptHandler,w
  6283  037A  000A               	callw
  6284  037B  3183               	pagesel	$
  6285  037C                     i1l275:
  6286  037C  0008               	return
  6287  037D                     __end_of_INT_CallBack:
  6288                           
  6289                           	psect	text24
  6290  03AE                     __ptext24:	
  6291 ;; *************** function _INT_DefaultInterruptHandler *****************
  6292 ;; Defined at:
  6293 ;;		line 54 in file "mcc_generated_files/ext_int.c"
  6294 ;; Parameters:    Size  Location     Type
  6295 ;;		None
  6296 ;; Auto vars:     Size  Location     Type
  6297 ;;		None
  6298 ;; Return value:  Size  Location     Type
  6299 ;;                  1    wreg      void 
  6300 ;; Registers used:
  6301 ;;		None
  6302 ;; Tracked objects:
  6303 ;;		On entry : 0/0
  6304 ;;		On exit  : 0/0
  6305 ;;		Unchanged: 0/0
  6306 ;; Data sizes:     COMMON   BANK0   BANK1   BANK2   BANK3   BANK4   BANK5   BANK6   BANK7   BANK8   BANK9  BANK10  BANK1
      +1  BANK12
  6307 ;;      Params:         0       0       0       0       0       0       0       0       0       0       0       0       
      +0       0
  6308 ;;      Locals:         0       0       0       0       0       0       0       0       0       0       0       0       
      +0       0
  6309 ;;      Temps:          0       0       0       0       0       0       0       0       0       0       0       0       
      +0       0
  6310 ;;      Totals:         0       0       0       0       0       0       0       0       0       0       0       0       
      +0       0
  6311 ;;Total ram usage:        0 bytes
  6312 ;; Hardware stack levels used:    1
  6313 ;; This function calls:
  6314 ;;		Nothing
  6315 ;; This function is called by:
  6316 ;;		_EXT_INT_Initialize
  6317 ;;		_INT_CallBack
  6318 ;; This function uses a non-reentrant model
  6319 ;;
  6320                           
  6321                           
  6322                           ;psect for function _INT_DefaultInterruptHandler
  6323  03AE                     _INT_DefaultInterruptHandler:
  6324  03AE                     i1l281:	
  6325                           ;incstack = 0
  6326                           ; Regs used in _INT_DefaultInterruptHandler: []
  6327                           
  6328  03AE  0008               	return
  6329  03AF                     __end_of_INT_DefaultInterruptHandler:
  6330                           
  6331                           	psect	text25
  6332  0245                     __ptext25:	
  6333 ;; *************** function _ISR *****************
  6334 ;; Defined at:
  6335 ;;		line 500 in file "wl_module.c"
  6336 ;; Parameters:    Size  Location     Type
  6337 ;;		None
  6338 ;; Auto vars:     Size  Location     Type
  6339 ;;  status          1    4[COMMON] unsigned char 
  6340 ;; Return value:  Size  Location     Type
  6341 ;;                  1    wreg      void 
  6342 ;; Registers used:
  6343 ;;		wreg, status,2, status,0, pclath, cstack
  6344 ;; Tracked objects:
  6345 ;;		On entry : 0/0
  6346 ;;		On exit  : 0/0
  6347 ;;		Unchanged: 0/0
  6348 ;; Data sizes:     COMMON   BANK0   BANK1   BANK2   BANK3   BANK4   BANK5   BANK6   BANK7   BANK8   BANK9  BANK10  BANK1
      +1  BANK12
  6349 ;;      Params:         0       0       0       0       0       0       0       0       0       0       0       0       
      +0       0
  6350 ;;      Locals:         1       0       0       0       0       0       0       0       0       0       0       0       
      +0       0
  6351 ;;      Temps:          1       0       0       0       0       0       0       0       0       0       0       0       
      +0       0
  6352 ;;      Totals:         2       0       0       0       0       0       0       0       0       0       0       0       
      +0       0
  6353 ;;Total ram usage:        2 bytes
  6354 ;; Hardware stack levels used:    1
  6355 ;; Hardware stack levels required when called:    2
  6356 ;; This function calls:
  6357 ;;		i1_SPI_ExchangeByte
  6358 ;;		i1_wl_module_config_register
  6359 ;; This function is called by:
  6360 ;;		_main
  6361 ;;		_INT_CallBack
  6362 ;; This function uses a non-reentrant model
  6363 ;;
  6364                           
  6365                           
  6366                           ;psect for function _ISR
  6367  0245                     _ISR:
  6368  0245                     i1l1624:	
  6369                           ;incstack = 0
  6370                           ; Regs used in _ISR: [wreg+status,2+status,0+pclath+cstack]
  6371                           
  6372                           
  6373                           ;wl_module.c: 503:         unsigned char status;;wl_module.c: 506:         LATCbits.LATC
      +                          6 = 0;;
  6374  0245  0022               	movlb	2	; select bank2
  6375  0246  130E               	bcf	14,6	;volatile
  6376  0247                     i1l1626:
  6377                           
  6378                           ;wl_module.c: 507:         status = SPI_ExchangeByte(0xFF);
  6379  0247  30FF               	movlw	255
  6380  0248  3183  2364  3182   	fcall	i1_SPI_ExchangeByte
  6381  024B  00F3               	movwf	??_ISR
  6382  024C  0873               	movf	??_ISR,w
  6383  024D  00F4               	movwf	ISR@status
  6384  024E                     i1l1628:
  6385                           
  6386                           ;wl_module.c: 508:         LATCbits.LATC6 = 1;;
  6387  024E  0022               	movlb	2	; select bank2
  6388  024F  170E               	bsf	14,6	;volatile
  6389  0250                     i1l1630:
  6390                           
  6391                           ;wl_module.c: 511:         if (status & (1<<5)){
  6392  0250  1EF4               	btfss	ISR@status,5
  6393  0251  2A53               	goto	u33_21
  6394  0252  2A54               	goto	u33_20
  6395  0253                     u33_21:
  6396  0253  2A5D               	goto	i1l1636
  6397  0254                     u33_20:
  6398  0254                     i1l1632:
  6399                           
  6400                           ;wl_module.c: 512:                     wl_module_config_register(0x07, (1<<5));
  6401  0254  3020               	movlw	32
  6402  0255  00F3               	movwf	??_ISR
  6403  0256  0873               	movf	??_ISR,w
  6404  0257  00F1               	movwf	i1wl_module_config_register@value
  6405  0258  3007               	movlw	7
  6406  0259  3183  232A  3182   	fcall	i1_wl_module_config_register
  6407  025C                     i1l1634:
  6408                           
  6409                           ;wl_module.c: 513:                     PTX=0;
  6410  025C  01F7               	clrf	_PTX	;volatile
  6411  025D                     i1l1636:
  6412                           
  6413                           ;wl_module.c: 516:  if (status & (1<<4)){
  6414  025D  1E74               	btfss	ISR@status,4
  6415  025E  2A60               	goto	u34_21
  6416  025F  2A61               	goto	u34_20
  6417  0260                     u34_21:
  6418  0260  2A71               	goto	i1l1646
  6419  0261                     u34_20:
  6420  0261                     i1l1638:
  6421                           
  6422                           ;wl_module.c: 517:   wl_module_config_register(0x07, (1<<4));
  6423  0261  3010               	movlw	16
  6424  0262  00F3               	movwf	??_ISR
  6425  0263  0873               	movf	??_ISR,w
  6426  0264  00F1               	movwf	i1wl_module_config_register@value
  6427  0265  3007               	movlw	7
  6428  0266  3183  232A  3182   	fcall	i1_wl_module_config_register
  6429  0269                     i1l1640:
  6430                           
  6431                           ;wl_module.c: 518:   LATCbits.LATC5 = 1;;
  6432  0269  0022               	movlb	2	; select bank2
  6433  026A  168E               	bsf	14,5	;volatile
  6434  026B                     i1l1642:
  6435                           
  6436                           ;wl_module.c: 519:   _delay((unsigned long)((10)*(16000000/4000000.0)));
  6437  026B  300D               	movlw	13
  6438  026C                     u72_27:
  6439  026C  0B89               	decfsz	9,f
  6440  026D  2A6C               	goto	u72_27
  6441  026E  0000               	nop
  6442  026F                     i1l1644:
  6443                           
  6444                           ;wl_module.c: 520:   LATCbits.LATC5 = 0;;
  6445  026F  0022               	movlb	2	; select bank2
  6446  0270  128E               	bcf	14,5	;volatile
  6447  0271                     i1l1646:
  6448                           
  6449                           ;wl_module.c: 523:  if (status & (1<<0)){
  6450  0271  1C74               	btfss	ISR@status,0
  6451  0272  2A74               	goto	u35_21
  6452  0273  2A75               	goto	u35_20
  6453  0274                     u35_21:
  6454  0274  2A7D               	goto	i1l466
  6455  0275                     u35_20:
  6456  0275                     i1l1648:
  6457                           
  6458                           ;wl_module.c: 524:   LATCbits.LATC6 = 0;;
  6459  0275  0022               	movlb	2	; select bank2
  6460  0276  130E               	bcf	14,6	;volatile
  6461  0277                     i1l1650:
  6462                           
  6463                           ;wl_module.c: 525:   SPI_ExchangeByte(0xE1);
  6464  0277  30E1               	movlw	225
  6465  0278  3183  2364  3182   	fcall	i1_SPI_ExchangeByte
  6466  027B                     i1l1652:
  6467                           
  6468                           ;wl_module.c: 526:   LATCbits.LATC6 = 1;;
  6469  027B  0022               	movlb	2	; select bank2
  6470  027C  170E               	bsf	14,6	;volatile
  6471  027D                     i1l466:
  6472  027D  0008               	return
  6473  027E                     __end_of_ISR:
  6474                           
  6475                           	psect	text26
  6476  032A                     __ptext26:	
  6477 ;; *************** function i1_wl_module_config_register *****************
  6478 ;; Defined at:
  6479 ;;		line 445 in file "wl_module.c"
  6480 ;; Parameters:    Size  Location     Type
  6481 ;;  reg             1    wreg     unsigned char 
  6482 ;;  value           1    1[COMMON] unsigned char 
  6483 ;; Auto vars:     Size  Location     Type
  6484 ;;  reg             1    2[COMMON] unsigned char 
  6485 ;; Return value:  Size  Location     Type
  6486 ;;                  1    wreg      void 
  6487 ;; Registers used:
  6488 ;;		wreg, status,2, status,0, pclath, cstack
  6489 ;; Tracked objects:
  6490 ;;		On entry : 0/0
  6491 ;;		On exit  : 0/0
  6492 ;;		Unchanged: 0/0
  6493 ;; Data sizes:     COMMON   BANK0   BANK1   BANK2   BANK3   BANK4   BANK5   BANK6   BANK7   BANK8   BANK9  BANK10  BANK1
      +1  BANK12
  6494 ;;      Params:         1       0       0       0       0       0       0       0       0       0       0       0       
      +0       0
  6495 ;;      Locals:         1       0       0       0       0       0       0       0       0       0       0       0       
      +0       0
  6496 ;;      Temps:          0       0       0       0       0       0       0       0       0       0       0       0       
      +0       0
  6497 ;;      Totals:         2       0       0       0       0       0       0       0       0       0       0       0       
      +0       0
  6498 ;;Total ram usage:        2 bytes
  6499 ;; Hardware stack levels used:    1
  6500 ;; Hardware stack levels required when called:    1
  6501 ;; This function calls:
  6502 ;;		i1_SPI_ExchangeByte
  6503 ;; This function is called by:
  6504 ;;		_ISR
  6505 ;; This function uses a non-reentrant model
  6506 ;;
  6507                           
  6508                           
  6509                           ;psect for function i1_wl_module_config_register
  6510  032A                     i1_wl_module_config_register:
  6511                           
  6512                           ;incstack = 0
  6513                           ; Regs used in i1_wl_module_config_register: [wreg+status,2+status,0+pclath+cstack]
  6514                           ;i1wl_module_config_register@reg stored from wreg
  6515  032A  00F2               	movwf	i1wl_module_config_register@reg
  6516  032B                     i1l1602:
  6517                           
  6518                           ;wl_module.c: 445: void wl_module_config_register(unsigned char reg, unsigned char value
      +                          );wl_module.c: 447: {;wl_module.c: 448:     LATCbits.LATC6 = 0;;
  6519  032B  0022               	movlb	2	; select bank2
  6520  032C  130E               	bcf	14,6	;volatile
  6521  032D                     i1l1604:
  6522                           
  6523                           ;wl_module.c: 449:     SPI_ExchangeByte(0x20 | (0x1F & reg));
  6524  032D  0872               	movf	i1wl_module_config_register@reg,w
  6525  032E  391F               	andlw	31
  6526  032F  3820               	iorlw	32
  6527  0330  3183  2364  3183   	fcall	i1_SPI_ExchangeByte
  6528                           
  6529                           ;wl_module.c: 450:    SPI_ExchangeByte(value);
  6530  0333  0871               	movf	i1wl_module_config_register@value,w
  6531  0334  3183  2364  3183   	fcall	i1_SPI_ExchangeByte
  6532  0337                     i1l1606:
  6533                           
  6534                           ;wl_module.c: 451:     LATCbits.LATC6 = 1;;
  6535  0337  0022               	movlb	2	; select bank2
  6536  0338  170E               	bsf	14,6	;volatile
  6537  0339                     i1l448:
  6538  0339  0008               	return
  6539  033A                     __end_ofi1_wl_module_config_register:
  6540                           
  6541                           	psect	text27
  6542  0364                     __ptext27:	
  6543 ;; *************** function i1_SPI_ExchangeByte *****************
  6544 ;; Defined at:
  6545 ;;		line 97 in file "mcc_generated_files/spi.c"
  6546 ;; Parameters:    Size  Location     Type
  6547 ;;  data            1    wreg     unsigned char 
  6548 ;; Auto vars:     Size  Location     Type
  6549 ;;  data            1    0[COMMON] unsigned char 
  6550 ;; Return value:  Size  Location     Type
  6551 ;;                  1    wreg      unsigned char 
  6552 ;; Registers used:
  6553 ;;		wreg
  6554 ;; Tracked objects:
  6555 ;;		On entry : 0/0
  6556 ;;		On exit  : 0/0
  6557 ;;		Unchanged: 0/0
  6558 ;; Data sizes:     COMMON   BANK0   BANK1   BANK2   BANK3   BANK4   BANK5   BANK6   BANK7   BANK8   BANK9  BANK10  BANK1
      +1  BANK12
  6559 ;;      Params:         0       0       0       0       0       0       0       0       0       0       0       0       
      +0       0
  6560 ;;      Locals:         1       0       0       0       0       0       0       0       0       0       0       0       
      +0       0
  6561 ;;      Temps:          0       0       0       0       0       0       0       0       0       0       0       0       
      +0       0
  6562 ;;      Totals:         1       0       0       0       0       0       0       0       0       0       0       0       
      +0       0
  6563 ;;Total ram usage:        1 bytes
  6564 ;; Hardware stack levels used:    1
  6565 ;; This function calls:
  6566 ;;		Nothing
  6567 ;; This function is called by:
  6568 ;;		_ISR
  6569 ;;		i1_wl_module_config_register
  6570 ;; This function uses a non-reentrant model
  6571 ;;
  6572                           
  6573                           
  6574                           ;psect for function i1_SPI_ExchangeByte
  6575  0364                     i1_SPI_ExchangeByte:
  6576                           
  6577                           ;incstack = 0
  6578                           ; Regs used in i1_SPI_ExchangeByte: [wreg]
  6579                           ;i1SPI_ExchangeByte@data stored from wreg
  6580  0364  00F0               	movwf	i1SPI_ExchangeByte@data
  6581  0365                     i1l1588:
  6582                           
  6583                           ;mcc_generated_files/spi.c: 97: uint8_t SPI_ExchangeByte(uint8_t data);mcc_generated_fil
      +                          es/spi.c: 98: {;mcc_generated_files/spi.c: 99:     SSP1BUF = data;
  6584  0365  0870               	movf	i1SPI_ExchangeByte@data,w
  6585  0366  0024               	movlb	4	; select bank4
  6586  0367  0091               	movwf	17	;volatile
  6587  0368                     i1l219:	
  6588                           ;mcc_generated_files/spi.c: 100:     while(!PIR1bits.SSP1IF);
  6589                           
  6590  0368  0020               	movlb	0	; select bank0
  6591  0369  1D90               	btfss	16,3	;volatile
  6592  036A  2B6C               	goto	u31_21
  6593  036B  2B6D               	goto	u31_20
  6594  036C                     u31_21:
  6595  036C  2B68               	goto	i1l219
  6596  036D                     u31_20:
  6597  036D                     i1l221:
  6598                           
  6599                           ;mcc_generated_files/spi.c: 101:     PIR1bits.SSP1IF = 0;
  6600  036D  1190               	bcf	16,3	;volatile
  6601  036E                     i1l1590:
  6602                           
  6603                           ;mcc_generated_files/spi.c: 102:     return SSP1BUF;
  6604  036E  0024               	movlb	4	; select bank4
  6605  036F  0811               	movf	17,w	;volatile
  6606  0370                     i1l222:
  6607  0370  0008               	return
  6608  0371                     __end_ofi1_SPI_ExchangeByte:
  6609  007E                     btemp	set	126	;btemp
  6610  007E                     int$flags	set	126
  6611  007E                     wtemp0	set	126
  6612                           
  6613                           	psect	config
  6614                           
  6615                           ;Config register CONFIG1 @ 0x8007
  6616                           ;	Oscillator Selection Bits
  6617                           ;	FOSC = INTOSC, INTOSC oscillator: I/O function on CLKIN pin
  6618                           ;	Power-up Timer Enable
  6619                           ;	PWRTE = OFF, PWRT disabled
  6620                           ;	MCLR Pin Function Select
  6621                           ;	MCLRE = ON, MCLR/VPP pin function is MCLR
  6622                           ;	Flash Program Memory Code Protection
  6623                           ;	CP = OFF, Program memory code protection is disabled
  6624                           ;	Brown-out Reset Enable
  6625                           ;	BOREN = ON, Brown-out Reset enabled
  6626                           ;	Clock Out Enable
  6627                           ;	CLKOUTEN = OFF, CLKOUT function is disabled. I/O or oscillator function on the CLKOUT 
      +                          pin
  6628                           ;	Internal/External Switch Over
  6629                           ;	IESO = ON, Internal External Switch Over mode is enabled
  6630                           ;	Fail-Safe Clock Monitor Enable
  6631                           ;	FCMEN = ON, Fail-Safe Clock Monitor is enabled
  6632  8007                     	org	32775
  6633  8007  3FFC               	dw	16380
  6634                           
  6635                           ;Config register CONFIG2 @ 0x8008
  6636                           ;	Flash Memory Self-Write Protection
  6637                           ;	WRT = OFF, Write protection off
  6638                           ;	Peripheral Pin Select one-way control
  6639                           ;	PPS1WAY = ON, The PPSLOCK bit cannot be cleared once it is set by software
  6640                           ;	Zero Cross Detect Disable Bit
  6641                           ;	ZCD = OFF, ZCD disable.  ZCD can be enabled by setting the ZCDSEN bit of ZCDCON
  6642                           ;	PLL Enable Bit
  6643                           ;	PLLEN = OFF, 4x PLL is enabled when software sets the SPLLEN bit
  6644                           ;	Stack Overflow/Underflow Reset Enable
  6645                           ;	STVREN = ON, Stack Overflow or Underflow will cause a Reset
  6646                           ;	Brown-out Reset Voltage Selection
  6647                           ;	BORV = LO, Brown-out Reset Voltage (Vbor), low trip point selected.
  6648                           ;	Low-Power Brown Out Reset
  6649                           ;	LPBOR = OFF, Low-Power BOR is disabled
  6650                           ;	Low-Voltage Programming Enable
  6651                           ;	LVP = ON, Low-voltage programming enabled
  6652  8008                     	org	32776
  6653  8008  3EFF               	dw	16127
  6654                           
  6655                           ;Config register CONFIG3 @ 0x8009
  6656                           ;	WDT Period Select
  6657                           ;	WDTCPS = WDTCPS1F, Software Control (WDTPS)
  6658                           ;	Watchdog Timer Enable
  6659                           ;	WDTE = OFF, WDT disabled
  6660                           ;	WDT Window Select
  6661                           ;	WDTCWS = WDTCWSSW, Software WDT window size control (WDTWS bits)
  6662                           ;	WDT Input Clock Selector
  6663                           ;	WDTCCS = SWC, Software control, controlled by WDTCS bits
  6664  8009                     	org	32777
  6665  8009  3F9F               	dw	16287

Data Sizes:
    Strings     0
    Constant    4
    Data        0
    BSS         2
    Persistent  40
    Stack       0

Auto Spaces:
    Space          Size  Autos    Used
    COMMON           14      5       9
    BANK0            80     60      66
    BANK1            80      0       0
    BANK2            80      0       0
    BANK3            80      0       0
    BANK4            80      0       0
    BANK5            80      0       0
    BANK6            80      0       0
    BANK7            80      0       0
    BANK8            80      0       0
    BANK9            80      0       0
    BANK10           80      0       0
    BANK11           80      0       0
    BANK12           48      0       0

Pointer List with Targets:

    wl_module_send@value	PTR unsigned char  size(1) Largest target is 32
		 -> main@payload(BANK0[32]), 

    wl_module_write_register@value	PTR unsigned char  size(2) Largest target is 4096
		 -> wl_module_set_rx_pw@payloadwidth(COMMON[1]), wl_module_power_down@config(COMMON[1]), wl_module_set_as_tx@config(COMMON[1]), wl_module_tx_config@tx_addr(BANK0[5]), 
		 -> wl_module_rx_config@data(COMMON[5]), RAM(DATA[4096]), 

    wl_module_set_TADDR@adr	PTR unsigned char  size(1) Largest target is 5
		 -> wl_module_tx_config@tx_addr(BANK0[5]), 

    wl_module_set_RADDR@adr	PTR unsigned char  size(2) Largest target is 4096
		 -> wl_module_tx_config@tx_addr(BANK0[5]), RAM(DATA[4096]), 

    INT_SetInterruptHandler@InterruptHandler	PTR FTN()void  size(2) Largest target is 1
		 -> ISR(), INT_DefaultInterruptHandler(), 

    INT_InterruptHandler	PTR FTN()void  size(2) Largest target is 1
		 -> ISR(), INT_DefaultInterruptHandler(), Absolute function(), 

    SPI_WriteBlock@block	PTR void  size(2) Largest target is 4096
		 -> wl_module_set_rx_pw@payloadwidth(COMMON[1]), wl_module_power_down@config(COMMON[1]), wl_module_set_as_tx@config(COMMON[1]), wl_module_tx_config@tx_addr(BANK0[5]), 
		 -> wl_module_rx_config@data(COMMON[5]), RAM(DATA[4096]), main@payload(BANK0[32]), 

    SPI_WriteBlock@data	PTR unsigned char  size(2) Largest target is 4096
		 -> wl_module_set_rx_pw@payloadwidth(COMMON[1]), wl_module_power_down@config(COMMON[1]), wl_module_set_as_tx@config(COMMON[1]), wl_module_tx_config@tx_addr(BANK0[5]), 
		 -> wl_module_rx_config@data(COMMON[5]), RAM(DATA[4096]), main@payload(BANK0[32]), 

    EUSART_SetErrorHandler@interruptHandler	PTR FTN()void  size(2) Largest target is 1
		 -> EUSART_DefaultErrorHandler(), 

    EUSART_ErrorHandler	PTR FTN()void  size(2) Largest target is 1
		 -> Absolute function(), EUSART_DefaultErrorHandler(), 

    EUSART_SetOverrunErrorHandler@interruptHandler	PTR FTN()void  size(2) Largest target is 1
		 -> EUSART_DefaultOverrunErrorHandler(), 

    EUSART_OverrunErrorHandler	PTR FTN()void  size(2) Largest target is 1
		 -> Absolute function(), EUSART_DefaultOverrunErrorHandler(), 

    EUSART_SetFramingErrorHandler@interruptHandler	PTR FTN()void  size(2) Largest target is 1
		 -> EUSART_DefaultFramingErrorHandler(), 

    EUSART_FramingErrorHandler	PTR FTN()void  size(2) Largest target is 1
		 -> Absolute function(), EUSART_DefaultFramingErrorHandler(), 


Critical Paths under _main in COMMON

    None.

Critical Paths under _INTERRUPT_InterruptManager in COMMON

    _INT_CallBack->_ISR
    _ISR->i1_wl_module_config_register
    i1_wl_module_config_register->i1_SPI_ExchangeByte

Critical Paths under _main in BANK0

    _main->_wl_module_tx_config
    _wl_module_tx_config->_wl_module_set_RADDR
    _wl_module_set_TADDR->_wl_module_write_register
    _wl_module_set_RADDR->_wl_module_write_register
    _wl_module_write_register->_SPI_WriteBlock
    _wl_module_send->_SPI_WriteBlock
    _wl_module_config_register->_SPI_ExchangeByte
    _SPI_WriteBlock->_SPI_ExchangeByte
    _EXT_INT_Initialize->_INT_SetInterruptHandler
    _EUSART_Initialize->_EUSART_SetErrorHandler
    _EUSART_Initialize->_EUSART_SetFramingErrorHandler
    _EUSART_Initialize->_EUSART_SetOverrunErrorHandler

Critical Paths under _INTERRUPT_InterruptManager in BANK0

    None.

Critical Paths under _main in BANK1

    None.

Critical Paths under _INTERRUPT_InterruptManager in BANK1

    None.

Critical Paths under _main in BANK2

    None.

Critical Paths under _INTERRUPT_InterruptManager in BANK2

    None.

Critical Paths under _main in BANK3

    None.

Critical Paths under _INTERRUPT_InterruptManager in BANK3

    None.

Critical Paths under _main in BANK4

    None.

Critical Paths under _INTERRUPT_InterruptManager in BANK4

    None.

Critical Paths under _main in BANK5

    None.

Critical Paths under _INTERRUPT_InterruptManager in BANK5

    None.

Critical Paths under _main in BANK6

    None.

Critical Paths under _INTERRUPT_InterruptManager in BANK6

    None.

Critical Paths under _main in BANK7

    None.

Critical Paths under _INTERRUPT_InterruptManager in BANK7

    None.

Critical Paths under _main in BANK8

    None.

Critical Paths under _INTERRUPT_InterruptManager in BANK8

    None.

Critical Paths under _main in BANK9

    None.

Critical Paths under _INTERRUPT_InterruptManager in BANK9

    None.

Critical Paths under _main in BANK10

    None.

Critical Paths under _INTERRUPT_InterruptManager in BANK10

    None.

Critical Paths under _main in BANK11

    None.

Critical Paths under _INTERRUPT_InterruptManager in BANK11

    None.

Critical Paths under _main in BANK12

    None.

Critical Paths under _INTERRUPT_InterruptManager in BANK12

    None.

Call Graph Tables:

 ---------------------------------------------------------------------------------
 (Depth) Function   	        Calls       Base Space   Used Autos Params    Refs
 ---------------------------------------------------------------------------------
 (0) _main                                                36    36      0   12603
                                             24 BANK0     36    36      0
            _INT_SetInterruptHandler
                           _SPI_Open
                  _SYSTEM_Initialize
                     _wl_module_init
                     _wl_module_send
                _wl_module_tx_config
 ---------------------------------------------------------------------------------
 (1) _wl_module_tx_config                                  8     8      0    8421
                                             16 BANK0      8     8      0
          _wl_module_config_register
                _wl_module_set_RADDR
                _wl_module_set_TADDR
 ---------------------------------------------------------------------------------
 (2) _wl_module_set_TADDR                                  2     2      0    2121
                                             13 BANK0      2     2      0
           _wl_module_write_register
 ---------------------------------------------------------------------------------
 (2) _wl_module_set_RADDR                                  3     1      2    2535
                                             13 BANK0      3     1      2
           _wl_module_write_register
 ---------------------------------------------------------------------------------
 (3) _wl_module_write_register                             6     3      3    1874
                                              7 BANK0      6     3      3
                   _SPI_ExchangeByte
                     _SPI_WriteBlock
 ---------------------------------------------------------------------------------
 (1) _wl_module_send                                       4     3      1    3162
                                              7 BANK0      4     3      1
                   _SPI_ExchangeByte
                     _SPI_WriteBlock
          _wl_module_config_register
 ---------------------------------------------------------------------------------
 (2) _wl_module_config_register                            2     1      1    2453
                                              1 BANK0      2     1      1
                   _SPI_ExchangeByte
 ---------------------------------------------------------------------------------
 (4) _SPI_WriteBlock                                       6     2      4     490
                                              1 BANK0      6     2      4
                   _SPI_ExchangeByte
 ---------------------------------------------------------------------------------
 (5) _SPI_ExchangeByte                                     1     1      0      31
                                              0 BANK0      1     1      0
 ---------------------------------------------------------------------------------
 (1) _wl_module_init                                       0     0      0       0
 ---------------------------------------------------------------------------------
 (1) _SYSTEM_Initialize                                    0     0      0     574
                  _EUSART_Initialize
                 _EXT_INT_Initialize
              _OSCILLATOR_Initialize
             _PIN_MANAGER_Initialize
                     _SPI_Initialize
 ---------------------------------------------------------------------------------
 (2) _SPI_Initialize                                       0     0      0       0
 ---------------------------------------------------------------------------------
 (2) _PIN_MANAGER_Initialize                               0     0      0       0
 ---------------------------------------------------------------------------------
 (2) _OSCILLATOR_Initialize                                0     0      0       0
 ---------------------------------------------------------------------------------
 (2) _EXT_INT_Initialize                                   0     0      0     211
            _INT_SetInterruptHandler
 ---------------------------------------------------------------------------------
 (3) _INT_SetInterruptHandler                              2     0      2     211
                                              0 BANK0      2     0      2
 ---------------------------------------------------------------------------------
 (2) _EUSART_Initialize                                    0     0      0     363
             _EUSART_SetErrorHandler
      _EUSART_SetFramingErrorHandler
      _EUSART_SetOverrunErrorHandler
 ---------------------------------------------------------------------------------
 (3) _EUSART_SetOverrunErrorHandler                        2     0      2     121
                                              0 BANK0      2     0      2
 ---------------------------------------------------------------------------------
 (3) _EUSART_SetFramingErrorHandler                        2     0      2     121
                                              0 BANK0      2     0      2
 ---------------------------------------------------------------------------------
 (3) _EUSART_SetErrorHandler                               2     0      2     121
                                              0 BANK0      2     0      2
 ---------------------------------------------------------------------------------
 (1) _SPI_Open                                             4     4      0     124
                                              0 BANK0      4     4      0
 ---------------------------------------------------------------------------------
 Estimated maximum stack depth 5
 ---------------------------------------------------------------------------------
 (Depth) Function   	        Calls       Base Space   Used Autos Params    Refs
 ---------------------------------------------------------------------------------
 (6) _INTERRUPT_InterruptManager                           0     0      0     207
                            _INT_ISR
 ---------------------------------------------------------------------------------
 (7) _INT_ISR                                              0     0      0     207
                       _INT_CallBack
 ---------------------------------------------------------------------------------
 (8) _INT_CallBack                                         0     0      0     207
                   Absolute function *
        _INT_DefaultInterruptHandler *
                                _ISR *
 ---------------------------------------------------------------------------------
 (9) _ISR                                                  2     2      0     207
                                              3 COMMON     2     2      0
                 i1_SPI_ExchangeByte
        i1_wl_module_config_register
 ---------------------------------------------------------------------------------
 (10) i1_wl_module_config_register                         2     1      1     118
                                              1 COMMON     2     1      1
                 i1_SPI_ExchangeByte
 ---------------------------------------------------------------------------------
 (11) i1_SPI_ExchangeByte                                  1     1      0      22
                                              0 COMMON     1     1      0
 ---------------------------------------------------------------------------------
 (9) _INT_DefaultInterruptHandler                          0     0      0       0
 ---------------------------------------------------------------------------------
 (9) Absolute function(Fake)                               0     0      0       0
 ---------------------------------------------------------------------------------
 Estimated maximum stack depth 11
 ---------------------------------------------------------------------------------

 Call Graph Graphs:

 _main (ROOT)
   _INT_SetInterruptHandler
   _SPI_Open
   _SYSTEM_Initialize
     _EUSART_Initialize
       _EUSART_SetErrorHandler
       _EUSART_SetFramingErrorHandler
       _EUSART_SetOverrunErrorHandler
     _EXT_INT_Initialize
       _INT_SetInterruptHandler
     _OSCILLATOR_Initialize
     _PIN_MANAGER_Initialize
     _SPI_Initialize
   _wl_module_init
   _wl_module_send
     _SPI_ExchangeByte
     _SPI_WriteBlock
       _SPI_ExchangeByte
     _wl_module_config_register
       _SPI_ExchangeByte
   _wl_module_tx_config
     _wl_module_config_register
       _SPI_ExchangeByte
     _wl_module_set_RADDR
       _wl_module_write_register
         _SPI_ExchangeByte
         _SPI_WriteBlock
           _SPI_ExchangeByte
     _wl_module_set_TADDR
       _wl_module_write_register
         _SPI_ExchangeByte
         _SPI_WriteBlock
           _SPI_ExchangeByte

 _INTERRUPT_InterruptManager (ROOT)
   _INT_ISR
     _INT_CallBack
       Absolute function(Fake) *
       _INT_DefaultInterruptHandler *
       _ISR *
         i1_SPI_ExchangeByte
         i1_wl_module_config_register
           i1_SPI_ExchangeByte

 Address spaces:
Name               Size   Autos  Total    Cost      Usage
BIGRAM             3F0      0       0       0        0.0%
NULL                 0      0       0       0        0.0%
CODE                 0      0       0       0        0.0%
BITCOMMON            E      0       0       1        0.0%
BITSFR0              0      0       0       1        0.0%
SFR0                 0      0       0       1        0.0%
COMMON               E      5       9       2       64.3%
BITSFR1              0      0       0       2        0.0%
SFR1                 0      0       0       2        0.0%
BITSFR2              0      0       0       3        0.0%
SFR2                 0      0       0       3        0.0%
STACK                0      0       0       3        0.0%
BITBANK0            50      0       0       4        0.0%
BITSFR3              0      0       0       4        0.0%
SFR3                 0      0       0       4        0.0%
BANK0               50     3C      42       5       82.5%
BITSFR4              0      0       0       5        0.0%
SFR4                 0      0       0       5        0.0%
BITBANK1            50      0       0       6        0.0%
BITSFR5              0      0       0       6        0.0%
SFR5                 0      0       0       6        0.0%
BANK1               50      0       0       7        0.0%
BITSFR6              0      0       0       7        0.0%
SFR6                 0      0       0       7        0.0%
BITBANK2            50      0       0       8        0.0%
BITSFR7              0      0       0       8        0.0%
SFR7                 0      0       0       8        0.0%
BANK2               50      0       0       9        0.0%
BITSFR8              0      0       0       9        0.0%
SFR8                 0      0       0       9        0.0%
BITBANK3            50      0       0      10        0.0%
BITSFR9              0      0       0      10        0.0%
SFR9                 0      0       0      10        0.0%
BANK3               50      0       0      11        0.0%
BITSFR10             0      0       0      11        0.0%
SFR10                0      0       0      11        0.0%
BITBANK4            50      0       0      12        0.0%
BITSFR11             0      0       0      12        0.0%
SFR11                0      0       0      12        0.0%
BANK4               50      0       0      13        0.0%
BITSFR12             0      0       0      13        0.0%
SFR12                0      0       0      13        0.0%
BITBANK5            50      0       0      14        0.0%
BITSFR13             0      0       0      14        0.0%
SFR13                0      0       0      14        0.0%
BANK5               50      0       0      15        0.0%
BITSFR14             0      0       0      15        0.0%
SFR14                0      0       0      15        0.0%
BITBANK6            50      0       0      16        0.0%
BITSFR15             0      0       0      16        0.0%
SFR15                0      0       0      16        0.0%
BANK6               50      0       0      17        0.0%
BITSFR16             0      0       0      17        0.0%
SFR16                0      0       0      17        0.0%
BITBANK7            50      0       0      18        0.0%
BITSFR17             0      0       0      18        0.0%
SFR17                0      0       0      18        0.0%
BANK7               50      0       0      19        0.0%
BITSFR18             0      0       0      19        0.0%
SFR18                0      0       0      19        0.0%
BITSFR19             0      0       0      20        0.0%
SFR19                0      0       0      20        0.0%
ABS                  0      0      4B      20        0.0%
BITBANK8            50      0       0      21        0.0%
BITSFR20             0      0       0      21        0.0%
SFR20                0      0       0      21        0.0%
BANK8               50      0       0      22        0.0%
BITSFR21             0      0       0      22        0.0%
SFR21                0      0       0      22        0.0%
BITBANK9            50      0       0      23        0.0%
BITSFR22             0      0       0      23        0.0%
SFR22                0      0       0      23        0.0%
BANK9               50      0       0      24        0.0%
BITSFR23             0      0       0      24        0.0%
SFR23                0      0       0      24        0.0%
BITBANK10           50      0       0      25        0.0%
BITSFR24             0      0       0      25        0.0%
SFR24                0      0       0      25        0.0%
BANK10              50      0       0      26        0.0%
BITSFR25             0      0       0      26        0.0%
SFR25                0      0       0      26        0.0%
BITBANK11           50      0       0      27        0.0%
BITSFR26             0      0       0      27        0.0%
SFR26                0      0       0      27        0.0%
BANK11              50      0       0      28        0.0%
BITSFR27             0      0       0      28        0.0%
SFR27                0      0       0      28        0.0%
BITBANK12           30      0       0      29        0.0%
BITSFR28             0      0       0      29        0.0%
SFR28                0      0       0      29        0.0%
BANK12              30      0       0      30        0.0%
BITSFR29             0      0       0      30        0.0%
SFR29                0      0       0      30        0.0%
BITSFR30             0      0       0      31        0.0%
SFR30                0      0       0      31        0.0%
DATA                 0      0      4B      31        0.0%
BITSFR31             0      0       0      32        0.0%
SFR31                0      0       0      32        0.0%


Microchip Technology PIC Macro Assembler V2.30 build 20200825195618 
Symbol Table                                                                                   Tue Jan 25 15:00:53 2022

                               _SPI_Initialize 02E0                                             l22 038C  
                                           l19 0329                                             l83 0244  
             i1wl_module_config_register@value 0071                                            l213 01CD  
                                          l221 0353                                            l222 0356  
                                          l129 02A2                                            l209 02F4  
                                          l219 034E                                            l411 0348  
                                          l180 03A4                                            l237 02C2  
                                          l174 039E                                            l408 0319  
                                          l177 0398                                            l353 0385  
                                          l370 0107                                            l284 0363  
                                          l460 0209                                            l278 0392  
                                          l454 02DF                                            l448 0307  
                                          l459 01D5                                            u520 0353  
                                          u521 0352                                            u530 02C2  
                                          u531 02C1                                            u540 017C  
                                          _ISR 0245                                            u541 017B  
                                          u550 01D5                                            u551 01D4  
                                          u570 0163                                            u707 016B  
                                          u571 0160                                            u717 0204  
                                          u584 0165                                            u677 0122  
                                          u687 0133                                            u697 0152  
                                          _PTX 0077                 ?_EUSART_SetFramingErrorHandler 0020  
                                          wreg 0009                    __end_of_wl_module_set_RADDR 031A  
                  __end_of_wl_module_set_TADDR 0349                                           ?_ISR 0070  
                                         l2110 0354                                           l2120 02B6  
                                         l2200 0080                                           l2122 0399  
                                         l2114 02A3                                           l2130 02C5  
                                         l2210 00A7                                           l2202 008F  
                                         l2124 0393                                           l2140 035A  
                                         l2108 034B                                           l2116 02A9  
                                         l2132 02C7                                           l2220 00C3  
                                         l2212 00AB                                           l2204 0093  
                                         l2300 013A                                           l2126 039F  
                                         l2150 0299                                           l2142 0362  
                                         l2118 02B1                                           l2134 02CE  
                                         l2310 0165                                           l2302 013F  
                                         l2152 02A1                                           l2144 027E  
                                         l2128 038D                                           l2136 02DD  
                                         l2160 0308                                           l2224 00C8  
                                         l2216 00B0                                           l2208 0098  
                                         l2304 0143                                           l2170 0177  
                                         l2146 0289                                           l2138 0357  
                                         l2154 02F7                                           l2250 01DC  
                                         l2162 030A                                           l2226 00D7  
                                         l2218 00BF                                           l2234 00E0  
                                         l2306 014C                                           l2180 01CB  
                                         l2172 017C                                           l2148 0291  
                                         l1700 0231                                           l2156 02F9  
                                         l2260 01ED                                           l2252 01E4  
                                         l2244 01D0                                           l2164 0317  
                                         l2228 00DB                                           l2236 00FD  
                                         l2308 0159                                           l2174 019E  
                                         l1710 023D                                           l1702 0233  
                                         l2158 0305                                           l2270 0207  
                                         l2262 01F1                                           l2254 01E6  
                                         l2246 01D0                                           l2166 033C  
                                         l2238 00FE                                           l2190 005E  
                                         l2176 019F                                           l1720 038A  
                                         l1712 023F                                           l1704 0236  
                                         l2168 031A                                           l2264 0200  
                                         l2256 01EA                                           l2248 01D7  
                                         l2192 0062                                           l2184 001D  
                                         l2280 0108                                           l2178 01B0  
                                         l1714 0241                                           l1706 0238  
                                         l2266 0202                                           l2258 01EC  
                                         l2194 006B                                           l2186 0047  
                                         l2290 0111                                           l2282 010B  
                                         l1716 0386                                           l1708 023A  
                                         l1660 02F0                                           l2268 0203  
                                         l2508 00E9                                           l2196 007B  
                                         l2188 0055                                           l2292 0119  
                                         l2284 010C                                           l1718 0389  
                                         l1670 0213                                           l1662 02F2  
                                         l1654 02E0                                           l2294 011C  
                                         l2286 010D                                           l1680 021E  
                                         l1672 0215                                           l1664 020A  
                                         l1656 02ED                                           l2296 0129  
                                         l2288 010D                                           l1690 0225  
                                         l1682 021F                                           l1674 0219  
                                         l1666 020E                                           l1658 02EE  
                                         l2298 012D                                           l1692 0228  
                                         l1684 0221                                           l1676 021B  
                                         l1668 0211                                           l1694 022A  
                                         l1686 0223                                           l1678 021D  
                                         l1696 022C                                           l1688 0224  
                                         l1776 037D                                           l1698 022F  
                                         _LATA 010C                                           _LATB 010D  
                              __end_of_INT_ISR 03AA                                           _LATC 010E  
                                         _WPUA 020C                                           _WPUB 020D  
                                         _WPUC 020E                                 _wl_module_init 037D  
                               _wl_module_send 01CE                                    main@payload 003A  
                                         _main 0108                                           fsr0h 0005  
                                         fsr1h 0007                                           indf0 0000  
                                         fsr0l 0004                                           indf1 0001  
                                         fsr1l 0006                                           btemp 007E  
          __end_of_INT_DefaultInterruptHandler 03AF                    _INT_DefaultInterruptHandler 03AE  
                                         start 0013                         __end_of_SPI_Initialize 02F5  
              __end_of_INT_SetInterruptHandler 0393                                          ??_ISR 0073  
                  __end_of_wl_module_tx_config 0108                      _wl_module_config_register 02F5  
               __size_of_OSCILLATOR_Initialize 0007                  __end_of_OSCILLATOR_Initialize 038D  
                                        ?_main 0070                                          i1l221 036D  
                                        i1l222 0370                                          i1l219 0368  
                                        i1l260 0011                                          i1l271 03A9  
                                        i1l281 03AE                                          i1l275 037C  
                                        i1l448 0339                                          i1l466 027D  
                                        u31_20 036D                                          u31_21 036C  
                                        u40_20 000A                                          u40_21 0009  
                                        u33_20 0254                                          u41_20 000E  
                                        u33_21 0253                                          u41_21 000D  
                                        u34_20 0261                                          u34_21 0260  
                                        u35_20 0275                                          u35_21 0274  
                                        u36_20 0377                                          u36_21 0376  
                                        u72_27 026C                                          _TRISA 008C  
                                        _TRISB 008D                                          _TRISC 008E  
                                        _RXPPS 0E24                         __end_of_wl_module_init 0386  
                       __end_of_wl_module_send 020A                               __end_of_SPI_Open 01CE  
                                        pclath 000A                                          status 0003  
                           i1_SPI_ExchangeByte 0364                                          wtemp0 007E  
             __end_of_wl_module_write_register 02E0                                 _SPI_WriteBlock 02A3  
                              ?_SPI_Initialize 0070                              wl_module_send@len 0027  
                              __initialization 0015                            ?i1_SPI_ExchangeByte 0070  
                                 __end_of_main 0175                    ?_INTERRUPT_InterruptManager 0070  
                                       ??_main 0038                                      ??_INT_ISR 0075  
                         ??i1_SPI_ExchangeByte 0070                       __end_of_SPI_ExchangeByte 0357  
            _EUSART_DefaultFramingErrorHandler 0000                     _EUSART_OverrunErrorHandler 005C  
          __end_ofi1_wl_module_config_register 033A                    i1_wl_module_config_register 032A  
                              ?_wl_module_init 0070                                         _ANSELA 018C  
                                       _ANSELB 018D                                         _ANSELC 018E  
                              ?_wl_module_send 0027                                         _BORCON 0116  
                                       _RC1REG 0199                                         _RC1STA 019D  
                                       _RB5PPS 0E9D                                         _RB6PPS 0E9E  
                                       _RC4PPS 0EA4                                         _ODCONA 028C  
                                       i1l1602 032B                                         _ODCONB 028D  
                                       _ODCONC 028E                                         i1l1604 032D  
                                       i1l1606 0337                                         i1l1630 0250  
                                       i1l1640 0269                                         i1l1632 0254  
                                       i1l1624 0245                                         i1l1650 0277  
                                       i1l1642 026B                                         i1l1634 025C  
                                       i1l1626 0247                                         i1l1652 027B  
                                       i1l1644 026F                                         i1l1636 025D  
                                       i1l1628 024E                                         i1l1740 0377  
                                       i1l1590 036E                                         i1l1638 0261  
                                       i1l1646 0271                                         i1l1648 0275  
                                       i1l1738 0371                                         i1l1588 0365  
                                       i1l1772 03A5                                         i1l1774 03A6  
                                       i1l1874 0006                                         i1l1876 000A  
                                       i1l1878 000E                                         _INLVLA 038C  
                                       _INLVLB 038D                                         _INLVLC 038E  
                                       _INTPPS 0E10                                         _OSCCON 0099  
                                       _SPBRGH 019C                                         _SPBRGL 019B  
                                       _TX1REG 019A                                         _TX1STA 019E  
                       __end_of_SPI_WriteBlock 02C3                         wl_module_set_RADDR@adr 002D  
                       wl_module_set_TADDR@adr 002E                                  ?_INT_CallBack 0070  
             __size_of_INT_SetInterruptHandler 0006        INT_SetInterruptHandler@InterruptHandler 0020  
                            _SYSTEM_Initialize 031A                        __end_of__initialization 0017  
                              ?_SPI_WriteBlock 0021                             ?_SYSTEM_Initialize 0070  
                               __pcstackCOMMON 0070                            ??_SYSTEM_Initialize 0075  
                               ??_INT_CallBack 0075                                      ?_SPI_Open 0070  
                  __size_of_EXT_INT_Initialize 000D                                 _OPTION_REGbits 0095  
            __size_of_wl_module_write_register 001D                      ?_wl_module_write_register 0027  
           __size_of_wl_module_config_register 0013                ??_EUSART_SetOverrunErrorHandler 0075  
                    __end_of_SYSTEM_Initialize 032A                                     __pnvCOMMON 0075  
                                    ISR@status 0074                                     __pmaintext 0108  
                                   __pintentry 0004                                     ??_SPI_Open 0020  
                                      _INT_ISR 03A5                                        _OSCTUNE 0098  
                                      _SSP1ADD 0212                                        _SLRCONA 030C  
                                      _SLRCONB 030D                                        _SLRCONC 030E  
                                      _SSP1BUF 0211                       ??_EUSART_SetErrorHandler 0075  
            __end_of_wl_module_config_register 0308                               ??_SPI_Initialize 0075  
                 __size_of_wl_module_set_RADDR 0012                   __size_of_wl_module_set_TADDR 000F  
                                      __ptext1 001B                                        __ptext2 033A  
                                      __ptext3 0308                                        __ptext4 02C3  
                                      __ptext5 01CE                                        __ptext6 02F5  
                                      __ptext7 02A3                                        __ptext8 0349  
                                      __ptext9 037D                                   __size_of_ISR 0039  
                        _OSCILLATOR_Initialize 0386                               ??_wl_module_init 0075  
                 __size_of_wl_module_tx_config 00ED                               ??_wl_module_send 0028  
                     ??_PIN_MANAGER_Initialize 0075                        _INT_SetInterruptHandler 038D  
                   __size_of_SYSTEM_Initialize 0010                              ?_SPI_ExchangeByte 0070  
                         end_of_initialization 0017                             ??_SPI_ExchangeByte 0075  
        __end_of_EUSART_SetOverrunErrorHandler 0399         __size_of_EUSART_SetOverrunErrorHandler 0006  
                _EUSART_SetOverrunErrorHandler 0393                           __end_of_INT_CallBack 037D  
                            _EUSART_Initialize 027E                        SPI_WriteBlock@blockSize 0023  
                           ?_EUSART_Initialize 0070                         i1SPI_ExchangeByte@data 0070  
         __size_ofi1_wl_module_config_register 0010                       wl_module_tx_config@tx_nr 0032  
                          ??_EUSART_Initialize 0075                              _spi_configuration 03AA  
                 wl_module_config_register@reg 0022                                      _SSPDATPPS 0E21  
                                    _SSPCLKPPS 0E20                    wl_module_write_register@len 0029  
                  wl_module_write_register@reg 002C                                      _TRISBbits 008D  
                                    _TRISCbits 008E                    __size_ofi1_SPI_ExchangeByte 000D  
                             ??_SPI_WriteBlock 0075                __size_of_EUSART_SetErrorHandler 0006  
                    __end_of_EUSART_Initialize 02A3                            SPI_WriteBlock@block 0021  
                          wl_module_send@value 002A                           SPI_ExchangeByte@data 0020  
                    __end_of_spi_configuration 03AE                     _EUSART_DefaultErrorHandler 0000  
                       ?_OSCILLATOR_Initialize 0070                      ??_INT_SetInterruptHandler 0075  
                            __size_of_SPI_Open 0059                            start_initialization 0015  
                                  __end_of_ISR 027E                __size_of_PIN_MANAGER_Initialize 003B  
                 ?_INT_DefaultInterruptHandler 0070                 ?_EUSART_SetOverrunErrorHandler 0020  
               SPI_Open@spiUniqueConfiguration 0023                     _EUSART_FramingErrorHandler 005E  
                       _EUSART_SetErrorHandler 039F                     __end_of_EXT_INT_Initialize 0364  
                          _wl_module_set_RADDR 0308                            _wl_module_set_TADDR 033A  
                                  __pbssCOMMON 0077                                      ___latbits 0002  
                                     ?_INT_ISR 0070                                  __pcstackBANK0 0020  
                        __size_of_INT_CallBack 000C                     __size_of_EUSART_Initialize 0025  
                         ?_wl_module_set_RADDR 002D                           ?_wl_module_set_TADDR 0070  
                                    __pnvBANK0 005A                            _wl_module_tx_config 001B  
                       _PIN_MANAGER_Initialize 020A                  ??_INT_DefaultInterruptHandler 0070  
                   wl_module_tx_config@tx_addr 0033                   ??_INTERRUPT_InterruptManager 0075  
                     _wl_module_write_register 02C3                                   _INT_CallBack 0371  
                                     _BAUD1CON 019F                           ?_wl_module_tx_config 0070  
                   ?_wl_module_config_register 0021                   ?i1_wl_module_config_register 0071  
                        ??_wl_module_set_RADDR 002F                          ??_wl_module_set_TADDR 002D  
       EUSART_SetErrorHandler@interruptHandler 0020                                       _LATCbits 010E  
               wl_module_config_register@value 0021                              _eusartRxLastError 0078  
          __size_of_INTERRUPT_InterruptManager 000F                                       _PIR1bits 0010  
              ??_EUSART_SetFramingErrorHandler 0075                      __size_of_SPI_ExchangeByte 000E  
                                     _SSP1CON1 0215                                       _SSP1CON2 0216  
            _EUSART_DefaultOverrunErrorHandler 0000                                       _SSP1STAT 0214  
                                     _SPI_Open 0175                  wl_module_write_register@value 0027  
                        ??_wl_module_tx_config 0030           __size_of_INT_DefaultInterruptHandler 0001  
                           SPI_WriteBlock@data 0025                               __size_of_INT_ISR 0005  
                ??i1_wl_module_config_register 0072                        __size_of_SPI_Initialize 0015  
                      ??_OSCILLATOR_Initialize 0075                            _EUSART_ErrorHandler 005A  
                                   _ANSELCbits 018E                     __end_ofi1_SPI_ExchangeByte 0371  
                                     __ptext10 031A                                       __ptext11 02E0  
                                     __ptext20 0175                                       __ptext12 020A  
                                     __ptext13 0386                                       __ptext22 03A5  
                                     __ptext14 0357                                       __ptext23 0371  
                                     __ptext15 038D                                       __ptext24 03AE  
                                     __ptext16 027E                                       __ptext25 0245  
                                     __ptext17 0393                                       __ptext26 032A  
                                     __ptext18 0399                                       __ptext27 0364  
                                     __ptext19 039F                                   _SSP1CON1bits 0215  
                      __size_of_wl_module_init 0009                                  __size_of_main 006D  
                      __size_of_wl_module_send 003C                 i1wl_module_config_register@reg 0072  
                      ?_EUSART_SetErrorHandler 0020                                     _RC1STAbits 019D  
EUSART_SetOverrunErrorHandler@interruptHandler 0020                                       int$flags 007E  
           __end_of_INTERRUPT_InterruptManager 0013                     _INTERRUPT_InterruptManager 0004  
        __end_of_EUSART_SetFramingErrorHandler 039F         __size_of_EUSART_SetFramingErrorHandler 0006  
                _EUSART_SetFramingErrorHandler 0399                                     _INTCONbits 000B  
                         _INT_InterruptHandler 0075                             _EXT_INT_Initialize 0357  
                                     intlevel1 0000                        ?_PIN_MANAGER_Initialize 0070  
               __end_of_EUSART_SetErrorHandler 03A5                            ?_EXT_INT_Initialize 0070  
                   ??_wl_module_write_register 002A                        __size_of_SPI_WriteBlock 0020  
                             _SPI_ExchangeByte 0349  EUSART_SetFramingErrorHandler@interruptHandler 0020  
                     ?_INT_SetInterruptHandler 0020                                  __pstringtext1 03AA  
                         ??_EXT_INT_Initialize 0075                                     _TX1STAbits 019E  
               __end_of_PIN_MANAGER_Initialize 0245                    ??_wl_module_config_register 0075  
